(dp0
S'class_sl'
p1
(dp2
S'H'
p3
(I10
I19
tp4
sS'C'
p5
(I0
I10
tp6
ssS'class_hierarchy'
p7
(dp8
g3
(lp9
S'H_subcl'
p10
asg5
(lp11
S'C_subcl'
p12
assS'feats'
p13
(dp14
S'Manganese_zinc_irontransportsystem'
p15
(lp16
F580.158539851752
aF0.6273903114980426
aF2092.9119233230235
aF3.801681443750625
aF3.4099210582429005
aF168.10870982333824
aF1.3346220256453207
aF1640.7462841570552
aF0.0007212751912879815
aF0.9024876715100272
aF0.963519661309032
aF5346.6078876885795
aF0.6751843292309464
aF0.000512034385237673
aF27.226295802227774
aF0.012404731567947039
aF2364.9813014462347
aF1245.3283806925137
aF0.0036575449783802297
asS'Reductivecitricacidcycle_Arnon_Buchanancycle_'
p17
(lp18
F0.0001411570088159045
aF396.4188818923582
aF4.73767812365352e-06
aF2.7530114022915403e-09
aF677.5560643082241
aF397.93811556848436
aF0.0
aF66.30720325285682
aF412.49800679051725
aF0.00018920142098169696
aF152.59604649694109
aF1.3975359509756298e-07
aF1.0394400685600008e-06
aF0.9313065486133004
aF8.29608269157398e-06
aF13.9767684498301
aF718.2130843538333
aF4.292449356366249e-06
aF0.024270530174245106
asS'GABA_gamma_Aminobutyrate_shunt'
p19
(lp20
F1485.2634698024565
aF1031.583613891937
aF1735.630142626381
aF993.2554453478448
aF1171.3014505526683
aF1078.627588183129
aF2817.387410158619
aF544.4363092949131
aF762.3727474519085
aF100.08294423493193
aF908.3536418439757
aF960.8506066362777
aF2079.9813193011782
aF1109.6310711032943
aF647.3899387055143
aF876.3903701269384
aF1041.8846520050176
aF1067.6755289503433
aF722.2160993146119
asS'Glucose_arabinosetransportsystem'
p21
(lp22
F0.020843008209892048
aF5.313396442891009e-10
aF0.0
aF0.2718095410608525
aF0.01222423807823483
aF0.0032028829204020274
aF0.30790481271143644
aF0.0
aF7.622034992554822e-11
aF0.0
aF0.09725027877192377
aF0.0
aF0.0
aF0.10042490707736675
aF0.0
aF0.0
aF0.0
aF0.0
aF1.205743459314898
asS'Originrecognitioncomplex'
p23
(lp24
F0.0
aF0.0
aF0.0
aF0.0
aF0.0
aF0.0
aF0.0
aF1.0843939131507685
aF0.0
aF0.0
aF74.72367253529559
aF0.0
aF1.962626823008497e-08
aF0.0
aF0.0
aF0.0
aF0.0
aF112.30825636672803
aF0.0
asS'RNApolymerase_bacteria'
p25
(lp26
F17539.293211550445
aF18528.288007383893
aF20198.404541531796
aF19567.66787009558
aF21212.195770179693
aF20400.696360664733
aF19878.944192370946
aF16859.881965092078
aF16965.356799551057
aF18241.428868105602
aF26097.082111080763
aF19277.840806710912
aF15090.526785362179
aF14285.629504540895
aF22070.220120076698
aF18970.178806783548
aF18925.117409714156
aF13049.605256321152
aF16957.85019771058
asS'Glycosphingolipidbiosynthesis_lacto_series_LacCer__Lc4Cer'
p27
(lp28
F0.0
aF0.0
aF0.0
aF0.0
aF2.2444678476306975e-08
aF0.0
aF0.0
aF0.0
aF0.0
aF0.0
aF0.0
aF0.0
aF0.0
aF0.0
aF0.0
aF0.0
aF0.0
aF0.0
aF0.0
asS'RTXtoxintransportsystem'
p29
(lp30
F0.0
aF0.03582204823163394
aF68.6338315085557
aF3.1296344425922055e-05
aF0.0
aF28.382736745942672
aF0.0
aF12.719003376499439
aF0.0
aF0.0
aF0.0
aF3.699753770131742
aF0.0
aF0.0
aF0.0
aF0.0
aF0.19891294087766667
aF67.39046586361188
aF0.0
asS'Branched_chainaminoacidtransportsystem'
p31
(lp32
F9109.01106805704
aF1424.727726522158
aF5199.497161645133
aF4704.465426157787
aF9462.539973521027
aF5704.241197847013
aF6475.902307253221
aF5718.477757181591
aF7538.584660903835
aF7170.344937329541
aF9093.398059399336
aF11221.912881980263
aF6381.998617135228
aF8306.204937908551
aF7022.217895504572
aF9590.859487595375
aF8366.845503743452
aF8137.247076569509
aF8378.015268333214
asS'Zinctransportsystem'
p33
(lp34
F7965.520764312606
aF17155.67880232459
aF16355.157104170126
aF3611.1286411065994
aF10324.12424901442
aF5910.576198101874
aF6534.3528323976
aF12440.559064458062
aF3942.9668647653593
aF9211.496034394291
aF11746.695565711914
aF12695.223559245647
aF7095.856943174345
aF6275.705001657889
aF7995.804002995037
aF8938.91137887591
aF12355.965876286844
aF8541.324042234357
aF5819.557740401645
asS'Heparansulfatedegradation'
p35
(lp36
F1.294674415126399e-08
aF0.0
aF3.5026226845714336e-10
aF0.0
aF0.0
aF0.0
aF0.0
aF0.0
aF0.0
aF4.4054016433680224e-05
aF2.596713760921177e-06
aF0.0
aF0.0
aF0.0
aF0.0
aF0.0
aF0.0
aF6.80981297212973e-10
aF9.761601502048686e-10
asS'Glycinebetaine_prolinetransportsystem'
p37
(lp38
F635.538038379953
aF9736.96143329956
aF2366.98573061476
aF329.7080193499157
aF0.03576376966592655
aF1335.5855181016793
aF658.4272768728188
aF5023.367781984973
aF781.377036712652
aF167.96146708713485
aF9.152774183613676
aF9.30509661748909
aF976.4039357942828
aF222.12603601716657
aF543.0262807709803
aF784.5548380650533
aF24.549374381010328
aF149.93470200207315
aF435.31841375274485
asS'Spermidine_putrescinetransportsystem'
p39
(lp40
F13805.489366399845
aF14094.70027945136
aF14293.463133197965
aF9588.512670418315
aF17998.99557879821
aF12543.350980593155
aF7372.369546670891
aF11583.152570026521
aF7568.673902297897
aF12647.608019561076
aF12490.538461155711
aF16606.978611939594
aF14784.09794610927
aF9234.738130666969
aF11036.51268211862
aF19388.415794887376
aF16271.238122974599
aF11744.320128102327
aF18487.277880514208
asS'CAM_Crassulaceanacidmetabolism__light'
p41
(lp42
F3695.161935541024
aF3637.4782017712478
aF9147.242978939916
aF1883.062829759442
aF3162.5828064010907
aF2807.098030687009
aF8192.3312157285
aF2800.8988792582636
aF1131.498854260631
aF2213.0489269773666
aF3487.6889614006595
aF3433.837500462779
aF7280.828116427095
aF257.82105091511903
aF2588.9157792750307
aF2539.90470368802
aF3599.34474389932
aF3741.880839618649
aF2080.8281872530442
asS'Prolinebiosynthesis_glutamate__proline'
p43
(lp44
F16536.72285433704
aF15545.841142968517
aF15603.800348540317
aF15983.814259104398
aF18998.29890078328
aF15155.637720188664
aF14578.689282048748
aF10491.691895059877
aF19407.949461314623
aF16928.692869613336
aF16829.759022854825
aF15443.20314810531
aF18310.04291545536
aF17035.02012908607
aF15821.264916474296
aF12704.053319851788
aF14110.510969860215
aF15358.242188697108
aF12719.522309629745
asS'C19_C18_Steroidhormonebiosynthesis_pregnenolone__androstenedione__estrone'
p45
(lp46
F0.0
aF0.0
aF0.0
aF0.0
aF0.0
aF0.0
aF0.0
aF0.0
aF0.0
aF0.0
aF0.0
aF0.0
aF0.0
aF0.0
aF0.0
aF0.0
aF0.0
aF0.0
aF0.0
asS'Dicarboxylate_hydroxybutyratecycle'
p47
(lp48
F0.0
aF0.0
aF0.0
aF0.0
aF0.0
aF0.0
aF0.0
aF0.0
aF0.0
aF0.0
aF0.0
aF0.0
aF0.0
aF0.0
aF0.0
aF0.0
aF0.0
aF0.0
aF0.0
asS'Citratecycle_firstcarbonoxidation'
p49
(lp50
F15794.882487193132
aF4923.190449463787
aF14277.345720790086
aF14682.981004715342
aF15151.341218498905
aF16746.178637453424
aF16820.9964515132
aF10378.023797165228
aF18801.345493319244
aF14900.909039348799
aF18087.60272038288
aF16211.49697457363
aF15202.75470450004
aF16165.67342487149
aF16726.199612180477
aF14991.131024831388
aF15525.197914666298
aF14332.312127071289
aF18293.51569924675
asS'DNApolymeraseIIIcomplex_bacteria'
p51
(lp52
F0.0
aF0.0
aF2571.0881451102787
aF0.0
aF0.0
aF0.0
aF0.0
aF0.0
aF0.0
aF0.0
aF0.0
aF0.0
aF0.0
aF0.0
aF0.0
aF0.0
aF0.0
aF0.0
aF0.0
asS'Ligninbiosynthesis_cinnamate__lignin'
p53
(lp54
F0.0
aF0.0
aF0.04315415797921643
aF0.0
aF0.0
aF0.0
aF0.0
aF0.0
aF1.5046887707630827e-05
aF0.0
aF0.0
aF0.0
aF0.5100196502718256
aF0.0
aF0.0
aF0.0
aF0.0
aF0.0
aF0.0
asS'O_glycanbiosynthesis_mucintypecore'
p55
(lp56
F0.0
aF0.0
aF0.0
aF0.0
aF0.0
aF0.0
aF0.0
aF0.0
aF0.0
aF0.0
aF0.0
aF0.0
aF0.0
aF0.0
aF0.0
aF0.0
aF0.0
aF0.0
aF0.0
asS'PTSsystem_mannose_specificIIcomponent'
p57
(lp58
F8291.112336404907
aF14814.80359735558
aF10043.977648428692
aF5556.812966646364
aF3171.7237201980297
aF9693.917197455676
aF4916.381860046092
aF5918.937368943261
aF5188.918749720061
aF5426.107295931005
aF2416.8544881034413
aF5770.11187486121
aF4517.9369880058
aF4903.539167981399
aF3236.572627282144
aF3024.5169854301585
aF1412.1974475268678
aF2992.7581815827803
aF7777.575117088743
asS'Sulfatetransportsystem'
p59
(lp60
F2847.8445914114586
aF24.018557573950982
aF913.8358867274053
aF3662.400499747002
aF3930.840114930861
aF4166.841673258673
aF0.7692564792695383
aF145.25975385074304
aF4900.321432283161
aF4138.355546506741
aF4911.663744483366
aF1919.676710485058
aF4290.917717690693
aF2731.134506529589
aF5037.51935705818
aF5457.954066675478
aF3532.7631433828933
aF4085.5493752817306
aF5571.743227622482
asS'NADbiosynthesis_aspartate__NAD'
p61
(lp62
F14426.223796650173
aF4872.968380524709
aF13932.70016994134
aF15438.025017896072
aF20047.54776969232
aF16795.024977812624
aF14562.458975228652
aF10380.611855528146
aF13643.767093708702
aF18829.912128054497
aF17628.856424492245
aF10617.380555182175
aF17329.16754564594
aF15605.868754262994
aF17145.73079221808
aF13350.546985416271
aF14510.508789979061
aF11992.209301183373
aF15105.471256567113
asS'Putativethiaminetransportsystem'
p63
(lp64
F0.0008366620063704216
aF8.564399693463682e-11
aF137.31376720503997
aF34.21504151763756
aF2.268325265566091e-05
aF43.992520840970805
aF5.791296236658162
aF1020.5337291799353
aF0.01951984426759468
aF0.6607192772454022
aF3.0221131505668586e-08
aF55.63198344804016
aF64.75246200461483
aF1.574319209543431
aF9.346142872273424e-05
aF0.00011401411440171988
aF1.2740059122661697e-05
aF0.00010956028833341582
aF23.583420736788916
asS'ComplexIII_Cytochromebc1complex_'
p65
(lp66
F0.0
aF0.0
aF0.0
aF0.0
aF0.0
aF0.0
aF0.0
aF0.0
aF0.0
aF0.0
aF0.0
aF0.0
aF0.0
aF0.0
aF0.0
aF0.0
aF0.0
aF0.0
aF0.0
asS'Non_phosphorylativeEntner_Doudoroffpathway_gluconate__glyceraldehyde_pyruvate'
p67
(lp68
F1.2134965328231645e-07
aF0.003560174504072622
aF2.798243698322113
aF6.558277662473164e-05
aF0.01961769096848911
aF0.0007304287325073952
aF182.83599744834592
aF4.322660306580903
aF0.000385602758147602
aF0.0
aF19.485280201681277
aF0.042482802216175314
aF4.176477852100209e-06
aF0.0
aF0.04823696415540129
aF1.0888668957761143
aF0.001473617958294193
aF6.476817040810772e-08
aF0.0008602316374730751
asS'PTSsystem_maltoseandglucose_specificIIcomponent'
p69
(lp70
F2661.2709943439813
aF14198.410499795737
aF2599.7278049998545
aF1983.2735969117555
aF1314.8626512055553
aF2792.1057409938703
aF2136.8494159826682
aF4218.769177050941
aF887.3076149548873
aF760.5457999052638
aF596.7383067789756
aF982.3102463403337
aF655.2455866752105
aF1087.137501882467
aF1852.1312920784571
aF1352.98797443329
aF446.9858120930298
aF766.4241192638028
aF2699.6770188076475
asS'Lactose_L_arabinosetransportsystem'
p71
(lp72
F151.06049597963744
aF7.521686734254915
aF179.25329141261977
aF201.08307405879597
aF167.28456791648313
aF256.6999902862093
aF136.85405836927524
aF208.2097148192495
aF138.30700443903936
aF214.45968605861526
aF128.56724603043844
aF229.30900055492992
aF110.23165173716262
aF103.93564904131364
aF204.04883655606292
aF229.17215271298247
aF121.00268365741404
aF91.11393874110371
aF156.55149982921807
asS'Maltose_maltodextrintransportsystem'
p73
(lp74
F8398.672373310812
aF10376.159698130166
aF4441.4668620912025
aF9390.761216273197
aF6999.689481092853
aF7427.67098390775
aF9966.54653594756
aF6991.7291838750225
aF8716.204387915548
aF13060.814263806302
aF11865.370411707174
aF6373.4438911787265
aF5980.347569584413
aF15334.333048140443
aF10091.547104013847
aF7964.391804837513
aF8186.4619296808805
aF8090.175052518139
aF10545.241935018537
asS'Malonatesemialdehydepathway_propanoyl_CoA__Acetyl_CoA'
p75
(lp76
F0.0
aF0.5036888847477949
aF0.0005589384391799817
aF0.0
aF0.0
aF0.0
aF0.013297277826450415
aF0.0
aF0.0
aF0.0
aF0.0
aF0.0
aF0.7737917824539073
aF0.0
aF0.0
aF0.0
aF0.0
aF0.0
aF0.7229882067629735
asS'Chondroitinsulfatedegradation'
p77
(lp78
F256.2260368791166
aF251.5688144429625
aF601.8618355295386
aF37.55992665584373
aF39.59003435951028
aF373.68038737423024
aF1539.0587252721966
aF730.9031521938645
aF9.262976264813897
aF0.0
aF55.31590303693455
aF47.02807106784274
aF997.6753542092416
aF5.565118351409154
aF28.813742273237487
aF170.14790146188645
aF45.73111933349056
aF457.29064753116455
aF264.47456296454266
asS'Rhamnosetransportsystem'
p79
(lp80
F87.46225781286707
aF1.8765939199023423e-06
aF34.002920991055674
aF310.9260324985124
aF387.0950531192444
aF299.4749257503528
aF2.1517056700327477e-06
aF228.57041139353692
aF80.95882905127739
aF406.15838682444297
aF7.9280180043279165
aF37.78309571612561
aF242.77952599496717
aF110.59148145449085
aF166.87952865788776
aF205.22514995016132
aF37.456259745282765
aF34.95527218019491
aF240.5530782159473
asS'Reductivepentosephosphatecycle_glyceraldehyde_3P__RuBP'
p81
(lp82
F0.0031455144380649848
aF0.0
aF170.50880708879217
aF812.5255530307022
aF0.00878666418648727
aF1.015438234840693e-06
aF14.26659306614636
aF248.10008543183773
aF0.0
aF0.5731460591468184
aF17.582506754198256
aF79.3395834416684
aF7.05769217531906
aF0.0
aF0.0
aF0.0
aF0.0077402901438569024
aF0.000656518560919161
aF4.560010099899183
asS'F_typeATPase_eukaryotes'
p83
(lp84
F0.0
aF0.0
aF0.0
aF0.0
aF0.0
aF0.0
aF0.0
aF0.0
aF0.0
aF0.0
aF0.0
aF0.0
aF0.0
aF0.0
aF0.0
aF0.0
aF0.0
aF0.0
aF0.0
asS'Pyrimidineribonucleotidebiosynthesis_UMP__UDP_UTP_CDP_CTP'
p85
(lp86
F9052.685354356681
aF10791.781979594516
aF11552.624461364214
aF4953.53892076961
aF3296.87526415508
aF9945.5823412742
aF11888.800805050101
aF9222.86370866724
aF7507.099965981205
aF2288.6383808523356
aF5169.341119007389
aF9361.806296187657
aF16740.360299763008
aF11921.79049717986
aF6489.7624285601805
aF9498.977477861645
aF11338.531518078114
aF7686.481755136312
aF3889.1400209813232
asS'Cytochromebdcomplex'
p87
(lp88
F2020.5831144483843
aF11145.176590884657
aF4636.150208840483
aF1893.3359444232783
aF1975.88427392827
aF2311.7091710058894
aF5889.70663123056
aF4249.853028760336
aF1011.63107400865
aF1314.811068007712
aF1497.8779381319578
aF1826.9314547027143
aF4454.003003112402
aF989.0797498729642
aF1450.276039781756
aF1283.225449472558
aF1988.6595341819523
aF2652.9341574946093
aF3033.7738250170164
asS'Methyl_galactosidetransportsystem'
p89
(lp90
F6771.362592974925
aF0.008208280530624628
aF5064.278399667657
aF5929.59429878417
aF6951.087402443044
aF13850.304908937724
aF4757.880672477013
aF7728.734887028468
aF5633.733924293102
aF10554.327653805502
aF7662.276974233107
aF6501.799430479958
aF8349.082338982453
aF7142.636579882089
aF7655.899289839005
aF9687.739302210692
aF8713.880487353266
aF5317.963549634432
aF12328.087166924335
asS'Sulfonate_nitrate_taurinetransportsystem'
p91
(lp92
F7611.293345736011
aF4521.167910030744
aF7880.619836199771
aF11294.019052976453
aF6706.540695867088
aF8488.373686915245
aF10252.782736770994
aF9826.85798204556
aF9168.656730333443
aF8426.465817368882
aF6771.596893313705
aF7653.3957635620345
aF9980.770361973717
aF7499.752866556991
aF7674.754478804085
aF8602.153506260523
aF8007.431584229057
aF8846.21336889964
aF6513.566082587214
asS'beta_Oxidation'
p93
(lp94
F337.67364384397075
aF90.87871381331844
aF992.8132789806394
aF116.2420871567593
aF269.9918711166162
aF349.4496906573858
aF691.923558427668
aF968.675123030717
aF295.83041712155944
aF61.27823538803562
aF246.64383152621116
aF495.6107117716239
aF251.12761944403638
aF574.914526486544
aF879.2571709745929
aF384.2674389559704
aF448.6650035318447
aF299.689183757537
aF417.92122395470545
asS'Castasteronebiosynthesis_campesterol__castasterone'
p95
(lp96
F0.0
aF0.0
aF0.0
aF0.0
aF0.0
aF0.0
aF0.0
aF0.0
aF0.0
aF0.0
aF0.0
aF0.0
aF0.0
aF0.0
aF0.0
aF0.0
aF0.0
aF0.0
aF0.0
asS'C1_unitinterconversion_prokaryotes'
p97
(lp98
F17692.685204959642
aF12177.501145182341
aF15530.373611483072
aF11606.919700974979
aF20397.685494996007
aF17320.25222502485
aF14475.716956103322
aF12755.001496868003
aF15593.8367947095
aF13628.583270004461
aF17427.54093471603
aF17440.168447969983
aF18242.92925375405
aF14514.869328382643
aF15727.01332134634
aF16671.825204433753
aF21721.931385123684
aF17618.746509508892
aF15199.497142703862
asS'CMP_KDObiosynthesis'
p99
(lp100
F3918.3233559570917
aF1730.1042046214666
aF5557.742916234299
aF10.668142091555065
aF1807.5880612258893
aF22.24632105921284
aF4432.5160909331535
aF3394.6621473224145
aF869.7263026921818
aF72.76998274492286
aF1836.258736128271
aF3669.501268106589
aF430.60798637443094
aF3.0637192599876633
aF3.554759138170528
aF3443.9296408915534
aF4735.247487783317
aF2873.8463358190456
aF1329.0640791603573
asS'Capsularpolysaccharidetransportsystem'
p101
(lp102
F0.0007642652547306803
aF0.14852505413677916
aF5.097955223391453e-05
aF0.019566560155569585
aF35.47563857284661
aF0.003372580385812942
aF804.2377716792649
aF527.1982538246652
aF0.0010175836430386443
aF0.0
aF0.0
aF203.33395281899575
aF283.0663931736952
aF188.17012900146395
aF0.0
aF0.2988423917280263
aF412.41453074340774
aF111.18715100061029
aF214.92932875130674
asS'Ketonebodybiosynthesis_acetyl_CoA__acetoacetate_3_hydroxybutyrate_acetone'
p103
(lp104
F1218.0712627541657
aF1.68021270015971e-06
aF0.0
aF747.006471827752
aF1153.27521661481
aF2.4084596307820525e-08
aF516.4761994247278
aF0.0
aF397.5542395373739
aF3.252237328770283
aF418.4582945289925
aF604.905685180316
aF640.0035783768082
aF454.0205743928542
aF0.0
aF0.0
aF0.0
aF227.99169342772132
aF0.0
asS'f_3_Hydroxypropionatebicycle'
p105
(lp106
F0.0
aF0.0
aF0.0
aF0.0
aF0.0
aF0.0
aF0.0
aF0.0
aF0.0
aF0.0
aF0.0
aF0.0
aF0.0
aF0.0
aF0.0
aF0.0
aF0.0
aF0.0
aF0.0
asS'Methanogenesis_methanol__methane'
p107
(lp108
F0.0
aF0.0
aF0.0
aF0.0
aF0.0
aF0.0
aF0.0
aF0.0
aF0.0
aF0.0
aF0.0
aF0.0
aF0.0
aF0.0
aF0.0
aF0.0
aF0.0
aF0.0
aF0.0
asS'TypeIVsecretionsystem'
p109
(lp110
F0.0
aF0.0
aF0.0
aF0.0
aF0.0
aF0.0
aF0.0
aF0.0
aF0.0
aF0.0
aF0.0
aF0.0
aF0.0
aF0.0
aF0.6618486615564492
aF0.0
aF0.0
aF0.0
aF0.0
asS'Semi_phosphorylativeEntner_Doudoroffpathway_gluconate__glyceraldehyde_3P_pyruvate'
p111
(lp112
F75.47646874380254
aF34.72503329965386
aF234.1713103650264
aF0.00018555382759505258
aF272.3552443260319
aF0.0019227305753043177
aF344.82133735003714
aF3036.89515855363
aF0.009112331589426136
aF0.0
aF75.29188691541262
aF213.60852628540647
aF0.0014715661226866762
aF0.0
aF4.215253938694326
aF2.6734611597542557
aF467.9053815507875
aF1.4563238562486413e-07
aF113.50785440744771
asS'Hemetransportsystem'
p113
(lp114
F502.4893431825538
aF226.8096956513565
aF1345.7973355897493
aF1341.1877181839423
aF894.1260667847702
aF671.1642283490938
aF746.9421054521727
aF1286.4539806459845
aF0.0
aF830.8681417377205
aF1.084036046424081
aF0.004716910080980742
aF1557.435924765221
aF0.001859378258692611
aF508.5006745143765
aF289.2701187248545
aF921.364487476265
aF492.44891583697097
aF434.5598828418942
asS'Gluconeogenesis_oxaloacetate__fructose_6P'
p115
(lp116
F15173.302375472058
aF10117.167871302807
aF16603.553627315894
aF15236.096502680768
aF18313.401226247024
aF18153.422629541095
aF12774.985836140451
aF14429.751227635192
aF17264.997512402395
aF17620.347369155905
aF20919.50182329909
aF16046.27955195264
aF16704.303196378016
aF16566.779134274046
aF18933.4789474564
aF18353.184529199578
aF17534.821407007123
aF18449.210109664364
aF19045.37107149446
asS'Lipopolysaccharidebiosynthesis_KDO2_lipidA'
p117
(lp118
F7.710937360916507e-05
aF1052.469445692184
aF6.191100914094367
aF1.0104571066010782e-05
aF0.0008676021909057918
aF796.9421903863197
aF1.1593130631187831e-08
aF2.3495334854002164e-09
aF0.004520561444633974
aF0.0
aF0.0
aF0.0
aF4.2996582449961686e-08
aF0.0
aF0.0
aF0.0
aF288.74759790737437
aF0.0
aF0.0
asS'PRPPbiosynthesis_ribose5P__PRPP'
p119
(lp120
F19987.13713299271
aF21222.895624701014
aF16158.354727983866
aF25662.00014465492
aF26350.80038232234
aF25685.253249572568
aF20412.117177337863
aF19224.947181704396
aF22925.671915486913
aF34072.771666660235
aF21295.463976086994
aF20968.035740231753
aF26504.36688407402
aF23276.673674799993
aF23877.30139863056
aF26090.451269131103
aF17873.29540979579
aF19170.908180605427
aF23942.34616130895
asS'Iron_zinc_coppertransportsystem'
p121
(lp122
F187.98941547915692
aF28.114370259098017
aF0.0007861708200095637
aF0.8804090368952503
aF0.0
aF1.8220379454443132e-05
aF0.0
aF0.014197223392334648
aF1.111747117417215e-05
aF0.004811835846897371
aF0.009070168286855492
aF0.02572996435182185
aF0.0
aF0.0009730929224581073
aF5.693147485792439e-08
aF0.0
aF1.5362723873310615
aF0.000881987957096788
aF0.0
asS'Fattyacidbiosynthesis_elongation_mitochondria'
p123
(lp124
F0.3598489279899171
aF5.356454880987348e-05
aF0.018201159824830466
aF4.792937922997147
aF63.71277248444258
aF1.5861842176920231
aF95.73499018669638
aF0.7611302619874606
aF1.2219816017956706
aF1.778838820237791
aF3.424083799155344
aF1.8584086422935235
aF12.86197203978814
aF238.61654933683053
aF148.844808415804
aF2.1665883758708966
aF0.7664398627014679
aF75.72036115350883
aF17.119229237570952
asS'AI_2transportsystem'
p125
(lp126
F492.85089994249927
aF0.0065254950486163
aF13.22893416847164
aF1541.1549353540995
aF369.93179401738155
aF144.9919532017652
aF166.2830612677383
aF94.21552800327908
aF6.985912374307938
aF171.83032505404293
aF6.523831923022098
aF0.9128845975814902
aF8.830801933193293
aF32.635184457562815
aF838.3714629489841
aF145.2124870063061
aF62.88921822697528
aF69.90042672223922
aF104.29893395347355
asS'PTSsystem_trehalose_specificIIcomponent'
p127
(lp128
F3618.5487171412424
aF10714.83165396543
aF2555.8998934535443
aF2428.188338150511
aF1573.6142171298288
aF2510.421382351441
aF2863.8019215141
aF6938.057894463176
aF5215.562297946984
aF2107.757942142646
aF1285.9311060843766
aF2133.86322703721
aF590.0758761171468
aF1189.1102193697438
aF1490.4643157907271
aF2717.5228822946124
aF1197.0150623352197
aF491.2200566444842
aF4763.107308236313
asS'f_2_oxoglutarate_ferredoxinoxidoreductase'
p129
(lp130
F5356.555239320766
aF1344.9765289424072
aF5576.515296450059
aF1494.4517986145404
aF8373.844518233102
aF943.5744202070751
aF967.6491627859028
aF1734.6441023850812
aF1767.6205736936136
aF0.0011617563255604771
aF2274.320322665094
aF3518.686065372288
aF5064.825606118698
aF942.6236346785012
aF11.844325880326712
aF1207.5696564886896
aF3824.1730959913816
aF3112.3994976200593
aF143.9919124783846
asS'DNApolymeraseepsiloncomplex'
p131
(lp132
F0.0
aF0.1310275270077105
aF0.0
aF11.454720219726788
aF0.0
aF0.0
aF0.0
aF18.80778885767223
aF0.0
aF0.0
aF0.0
aF0.0
aF0.0
aF0.0
aF0.0
aF0.0
aF76.28498427638607
aF0.0
aF0.0
asS'Osmoprotectanttransportsystem'
p133
(lp134
F5529.993725988726
aF13117.995564216642
aF3675.470662522272
aF2637.299932793073
aF1825.1330058510227
aF4719.085082214997
aF3209.5040605406275
aF7716.580401522874
aF1059.9945695686404
aF1033.2539559926047
aF2254.427744486747
aF1711.4362553026615
aF2838.5212995090883
aF1098.497238208859
aF679.5828374737582
aF692.1037350608195
aF1703.7490760878757
aF2501.7753539820205
aF1437.3672212166982
asS'Tyrosinebiosynthesis_chorismate__tyrosine'
p135
(lp136
F4453.253030667264
aF960.8104108225051
aF7941.697489336424
aF2470.812799122459
aF1871.1993185248314
aF5744.43212190212
aF2943.653334309716
aF5440.251810268478
aF1608.3408698217643
aF7.757854118400212
aF11.138271339270307
aF9180.352680854641
aF3973.9398484001554
aF1285.1304734466144
aF2203.0129452476185
aF1245.4399051896883
aF6195.041812337034
aF3284.8381883114175
aF4303.279374764348
asS'Leucinedegradation_leucine__acetoacetate_acetyl_CoA'
p137
(lp138
F8.826046224132345
aF2.3979020816203934e-06
aF0.0004517112019807335
aF45.930415997957816
aF12.873554065472476
aF4.558605676283141
aF455.8119663986823
aF135.56237965157715
aF51.221449050743864
aF3.893266256655203
aF102.72978065759297
aF142.1587004791956
aF3.047620398208716
aF160.50217273324677
aF1.7114248514652615
aF95.31534556089329
aF53.16510419701082
aF151.42248184735132
aF2.2419602137012804
asS'Bacitracintransportsystem'
p139
(lp140
F127.72919681918259
aF0.09663059594233696
aF45.029094850486466
aF234.8998376380863
aF252.31462484127402
aF58.87282842762608
aF5.971509742872775
aF151.43389482326816
aF20.064754492512073
aF68.58583365121412
aF3.2220318032111948
aF22.075683942905865
aF46.162784956825774
aF343.6706659100589
aF10.855636499538024
aF128.65486043504404
aF9.254508750302405
aF140.8410468988725
aF567.6423491583128
asS'Creatinepathway'
p141
(lp142
F0.0
aF0.0
aF0.0
aF0.0
aF0.0
aF0.0
aF0.0
aF0.0
aF0.0
aF0.0
aF0.00035336453284617403
aF0.0
aF0.0
aF0.0
aF0.0
aF0.0
aF0.20886198651939
aF0.0
aF0.0
asS'D_Methioninetransportsystem'
p143
(lp144
F9294.502954091999
aF14654.714112890504
aF14534.193501596195
aF15429.239033763977
aF9896.616600329091
aF12836.841515059043
aF8860.727440909695
aF11934.404272553615
aF10106.586678279336
aF9162.871471529073
aF10306.133675510595
aF13075.145623454744
aF4825.149518749483
aF11389.80323609692
aF10808.95403521754
aF11228.135099137153
aF10407.012832600656
aF6916.424953907323
aF8333.079003870875
asS'V_typeATPase_eukaryotes'
p145
(lp146
F0.0
aF0.0
aF0.0
aF0.0
aF0.0
aF0.0
aF0.0
aF0.0
aF0.0
aF0.0
aF0.0
aF0.0
aF0.0
aF0.0
aF0.0
aF0.0
aF0.0
aF0.0
aF0.0
asS'Pentosephosphatepathway_oxidativephase_glucose6P__ribulose5P'
p147
(lp148
F5768.037607686904
aF12574.282526876319
aF5805.348219657461
aF6754.5436125828555
aF2271.2592334492774
aF1586.8623092891578
aF6075.743712704581
aF9174.827216106767
aF7054.831830805531
aF4558.496582648792
aF4366.554534487613
aF4567.277224620757
aF1889.0242457893053
aF9348.310837195795
aF5749.871517792135
aF3440.674434126833
aF3045.348622460471
aF6079.1072792975
aF2415.537759684829
asS'N_glycanbiosynthesis_high_mannosetype'
p149
(lp150
F0.0
aF0.0
aF0.0
aF0.0
aF0.0
aF0.0
aF0.0
aF0.0
aF0.0
aF0.0
aF0.0
aF0.0
aF0.0
aF0.0
aF0.0
aF0.0
aF0.0
aF0.0
aF0.0
asS'Multiplesugartransportsystem'
p151
(lp152
F5769.3403138577205
aF11196.623304194585
aF5303.8880653448505
aF6068.274269030701
aF5901.915329776622
aF5113.333392527731
aF6447.670031464339
aF7214.1008736604235
aF4269.814644383609
aF4707.124064855963
aF4239.525200169804
aF5618.247483491288
aF4368.743323771918
aF3952.9180086995543
aF5495.855158269496
aF7410.780539113738
aF5580.432338327684
aF4568.225410482574
aF4997.223187448739
asS'D_Xylosetransportsystem'
p153
(lp154
F718.9605388038664
aF2.321167456357629
aF1189.4862753139328
aF1679.2735426644065
aF1193.7970307747403
aF1834.4913624114079
aF861.3796054034881
aF2795.725589731559
aF1611.5602272604035
aF1489.8185316657582
aF795.2072586190038
aF500.84942413365764
aF983.2994514863112
aF518.8361106614555
aF1200.2229926199652
aF1374.5980655155956
aF490.6498126212842
aF246.16150550447043
aF1094.7668010882485
asS'PTSsystem_N_acetylglucosamine_specificIIcomponent'
p155
(lp156
F1683.6548047640151
aF6037.5862216775
aF1354.1114869959545
aF5212.74051524768
aF529.9516863222748
aF1152.8656237823286
aF4166.9647436623545
aF5927.340510384357
aF4080.8422761994466
aF1830.8961592557694
aF899.5989869696572
aF999.9525899029479
aF745.8083242274312
aF1460.1612758345364
aF2277.2503905438143
aF2095.482141950987
aF941.1104963692508
aF1664.348328935034
aF2235.9773121744834
asS'N_glycanprecursorbiosynthesis'
p157
(lp158
F0.0
aF0.0
aF0.002884730450025178
aF0.0
aF0.35755641491668155
aF0.0
aF0.0
aF0.0
aF0.0
aF0.0
aF0.0
aF0.0
aF0.0
aF0.0
aF0.0
aF0.0
aF0.0
aF4.0117420922813134e-05
aF0.11608522842713109
asS'GINScomplex'
p159
(lp160
F0.0
aF0.0
aF0.0
aF0.0
aF0.0
aF0.0
aF0.0
aF0.0
aF0.0
aF0.0
aF0.0
aF0.0
aF0.0
aF0.0
aF0.0
aF0.0
aF0.0
aF0.0
aF0.0
asS'Fattyacidbiosynthesis_elongation'
p161
(lp162
F9611.472099745532
aF13875.381281819931
aF13366.12300867731
aF9139.037453070754
aF14504.890727609341
aF9523.748347728166
aF11889.88325619446
aF13812.798027953928
aF11595.240114897277
aF13282.822276106948
aF18648.885516559763
aF17090.653231893015
aF12670.31855274927
aF9780.163665201888
aF15636.606012488257
aF17552.504568096767
aF15378.560938474122
aF15044.431552634362
aF13420.077678669963
asS'ATPsynthase'
p163
(lp164
F17278.185938218747
aF16214.155067917225
aF14249.348434236414
aF16159.22901690552
aF14331.641831834286
aF15870.835228021724
aF17873.473889001
aF12268.220962583357
aF22138.180521572267
aF23209.917224688837
aF19437.0629060066
aF20412.1810844307
aF17961.621397516516
aF16885.282630834987
aF20889.68266277977
aF22454.978703296667
aF17418.86887714959
aF16998.817075147155
aF18569.570767938265
asS'Sec_secretion_system'
p165
(lp166
F2773.2899300508075
aF3.367865018884138e-08
aF0.0
aF0.0
aF0.0
aF2877.9009444997996
aF0.0
aF6218.245038562395
aF0.0
aF0.0
aF0.0
aF0.0
aF0.0
aF0.0
aF0.0
aF0.0
aF0.0
aF0.0
aF0.0
asS'ComplexII_succinatedehydrogenase_fumaratereductase__succinatedehydrogenase'
p167
(lp168
F0.0
aF2121.8499406575115
aF3965.353193801301
aF2.763263898403234e-11
aF2982.6711606948343
aF1442.414012070205
aF0.0
aF2825.640306954059
aF1588.928693262341
aF0.0
aF1551.8050682895387
aF68.86655438416751
aF2.7646456094503864
aF14.181484734174168
aF275.03740155069005
aF18.186500237026817
aF1146.131013891973
aF3591.4867986321347
aF3873.424992642274
asS'Methanogenesis_formate__methane'
p169
(lp170
F0.0
aF0.0
aF0.0
aF0.0
aF0.0
aF0.0
aF0.0
aF0.0
aF0.0
aF0.0
aF0.0
aF0.0
aF0.0
aF0.0
aF0.0
aF0.0
aF0.0
aF0.0
aF0.0
asS'beta_Carotenebiosynthesis_GGAP__beta_carotene'
p171
(lp172
F210.40996608942257
aF0.0
aF1.1190073637873856
aF156.1797770924697
aF3.2201790156308676
aF60.19795623317697
aF9.54471920758083
aF1.3424212010726526e-05
aF0.017510537863307946
aF0.00500048064529735
aF63.88624972974812
aF0.9111456079287398
aF1.442896550959347
aF118.04787083615507
aF0.0
aF52.78941996870776
aF361.9033126446759
aF278.1429059305508
aF111.39888728952207
asS'Glycosphingolipidbiosynthesis_globo_series_LacCer__Gb4Cer'
p173
(lp174
F0.0
aF0.0
aF0.0
aF0.0
aF0.0
aF0.0
aF0.0
aF0.0
aF0.0
aF0.0
aF0.0
aF0.0
aF0.0
aF0.0
aF0.0
aF0.0
aF0.0
aF0.0
aF22.77507094013352
asS'Nitrogenfixation_N2__ammonia'
p175
(lp176
F2802.906199412348
aF4768.711244838035
aF1524.3327240414408
aF421.28186011169805
aF3894.5013496393426
aF2424.7087373178506
aF1582.2183805679679
aF965.6043198623623
aF3967.867659940732
aF5935.337408503259
aF2735.4344896355087
aF4347.41335990689
aF1423.0116929690955
aF4872.000971874612
aF4794.310337230646
aF5721.89086638905
aF4078.4280019618304
aF2572.5695908825514
aF5022.849367459714
asS'Ironcomplextransportsystem'
p177
(lp178
F7558.020807674272
aF13674.298181436941
aF9385.245507982097
aF6065.2990204684265
aF8907.731946888292
aF7253.994223397928
aF6030.304972985673
aF10089.95933920138
aF6266.247778564853
aF8614.903124296432
aF7559.374479862015
aF10583.192614448519
aF7342.510575886017
aF5741.263900608559
aF6208.677113648906
aF9262.102049097435
aF10174.776277004728
aF8653.462856420518
aF7883.177687642465
asS'Flavonoidbiosynthesis_4_coumaroyl_CoA__naringenin__apigenin'
p179
(lp180
F0.0
aF0.0
aF0.0
aF0.0
aF0.0
aF0.0
aF0.0
aF0.0
aF0.0
aF0.0
aF0.0
aF0.0
aF0.0
aF0.0
aF0.0
aF0.0
aF0.0
aF0.0
aF0.0
asS'Tryptophanbiosynthesis_chorismate__tryptophan'
p181
(lp182
F11083.442565288762
aF2729.2404310441675
aF6038.529448782607
aF7907.123624075218
aF10133.50687045707
aF10227.281687857996
aF10722.188821411803
aF9395.617152489218
aF9612.17708084457
aF13859.047776993566
aF12045.631880429246
aF6774.05010803089
aF14205.577415572794
aF9702.563258599375
aF11213.16527972881
aF9277.629305296083
aF9147.809777857541
aF8810.212893868458
aF9127.754696632572
asS'C10_C20isoprenoidbiosynthesis_bacteria'
p183
(lp184
F4213.843259888821
aF120.05787087686699
aF3122.5157161468387
aF3080.887400602419
aF3324.9745036923227
aF1405.2418056271035
aF3020.7677642652593
aF2284.1262016897517
aF1598.3963900570877
aF413.63411618277524
aF1354.2083318518055
aF2495.8582828733397
aF1587.5871061984074
aF1240.746991086636
aF2131.337639277446
aF1478.3065912919303
aF1689.9933565699648
aF3374.9341469358633
aF2884.5238685867826
asS'Neutralaminoacidtransportsystem'
p185
(lp186
F1.615961017750506e-10
aF0.0
aF0.04758341465618659
aF0.0
aF0.6410206830014552
aF0.0
aF0.09593052917554182
aF0.01055397678505461
aF3.179631366614392e-05
aF0.0
aF0.0007752934068022427
aF0.4323894267991805
aF0.012489796161671608
aF0.7803446521773638
aF2.6018073002764552
aF6.084218068814594
aF0.49326284320542246
aF0.006689111358547328
aF2.8119270036970785
asS'Histidinedegradation_histidine__N_formiminoglutamate__glutamate'
p187
(lp188
F1985.7648361414324
aF1773.2723669422624
aF2728.5857416230083
aF0.004093515991253498
aF1641.8792704571226
aF2.9002839596405765e-07
aF1674.4804685524878
aF1584.3429048208031
aF752.0393958368741
aF1.385147879143471
aF0.0012675918465760608
aF0.02443790873419159
aF605.8879679707685
aF311.73649792279434
aF168.5627293795772
aF334.5892470376707
aF4.039540768480623
aF0.0
aF110.24538305807745
asS'Triacylglycerolbiosynthesis'
p189
(lp190
F0.0
aF28.632903028275557
aF0.0019689193286420233
aF0.0
aF218.3168426726388
aF0.0
aF1.2306955345020361e-05
aF0.0
aF416.1684154788576
aF0.007721951728954039
aF0.0016283692909684958
aF65.02938872256416
aF0.8033152751366753
aF0.0
aF213.3027158153893
aF59.46865537502769
aF0.0
aF56.31522629466634
aF11.444820212227206
asS'Spliceosome_35SU5_snRNP'
p191
(lp192
F0.0
aF0.0
aF0.0
aF0.0
aF0.0
aF0.0
aF0.0
aF0.0
aF0.0
aF0.0
aF0.0
aF0.0
aF0.0
aF0.0
aF0.0
aF0.0
aF0.0
aF0.0
aF0.0
asS'Iron_III_transportsystem'
p193
(lp194
F2895.753781711692
aF1043.3552306007384
aF4187.60005517232
aF4102.437031704846
aF3200.683821496018
aF1501.3253573801862
aF4639.240189114329
aF7677.392541130532
aF2052.1452945441824
aF1544.200359295289
aF2073.809753185051
aF7027.880139615906
aF4415.903635093204
aF1478.8831367498938
aF2235.516978379303
aF2051.118199655926
aF8067.044362495295
aF4595.496929365144
aF2370.983127725189
asS'Pentosephosphatepathway_Pentosephosphatecycle_'
p195
(lp196
F8579.835573451915
aF9912.73052014681
aF8670.349261647263
aF10029.953341343704
aF3893.8616125870503
aF3017.7716056440145
aF8384.50794457564
aF12472.119497408521
aF10546.42669646252
aF7238.246575418604
aF7106.749007201021
aF7377.045633080615
aF3415.1331290109765
aF12841.852093850217
aF8618.148034788976
aF5799.710011613535
aF5394.56380771889
aF8654.358437924628
aF4262.363140887378
asS'Arginine_ornithinetransportsystem'
p197
(lp198
F0.5882228399354125
aF0.016612161788200085
aF0.2957002137290454
aF0.1310853591378911
aF4.708275609942162
aF0.27175488089965555
aF0.2604105356363819
aF0.5571520283899195
aF3.681210755327389
aF1.7424330239441703
aF0.11917322725627348
aF1.0649941747612253
aF1.1775567801264013
aF0.40418368782232195
aF0.6717759656123156
aF1.884720365289309
aF2.3270639644741298
aF1.2457711623110155
aF0.08265552389760422
asS'Lipoprotein_releasingsystem'
p199
(lp200
F3796.5442943190833
aF2591.968972166396
aF2130.722092327577
aF2512.407950257551
aF3758.860387654985
aF2594.2821066540073
aF5561.24797627014
aF1831.8428030013338
aF2952.990666614975
aF2999.2968494954775
aF2821.6499959257785
aF2398.4987288270063
aF3890.792716109471
aF2132.2698166952105
aF2939.5773297269866
aF1666.7032093499363
aF1935.5788840967853
aF1974.9083647473963
aF3738.037802662387
asS'Nucleotidesugarbiosynthesis_eukaryotes'
p201
(lp202
F46.65298885464466
aF39.107248415549094
aF220.0808418776055
aF181.4971958797755
aF44.2574280628402
aF17.68087705142752
aF9.471835800523424
aF42.346102883492065
aF31.60506587180876
aF62.21208410996313
aF383.3525619260197
aF652.872749171825
aF256.14337220816776
aF242.5487069791764
aF1.5139050476210933
aF1144.9024487403708
aF162.0037243101283
aF361.3994143980472
aF11.752952399843482
asS'RPAcomplex'
p203
(lp204
F0.0
aF0.0
aF0.0
aF0.0
aF0.0
aF0.0
aF0.0
aF0.0
aF0.0
aF0.0
aF0.0
aF0.0
aF0.0
aF0.0
aF0.0
aF0.0
aF0.0
aF0.0
aF0.0
asS'Polyaminebiosynthesis_arginine__ornithine__putrescine'
p205
(lp206
F1617.5069900196797
aF680.9192562805454
aF1426.9389577163554
aF703.4380612222309
aF999.8920054608371
aF404.93649332072727
aF1156.0658863049796
aF386.05723879817714
aF525.7950418225075
aF329.46130433654656
aF565.4401128849408
aF577.7127728228834
aF540.0395591105066
aF151.486264802583
aF812.8571054997369
aF377.98602957489624
aF1739.6925577517152
aF2002.7789615209365
aF828.829618474907
asS'Acylglyceroldegradation'
p207
(lp208
F1959.5856982025505
aF1174.241861088438
aF891.358949732637
aF1527.5349942157738
aF2062.3347272042333
aF3258.920820440473
aF2295.556486009638
aF2229.21507470388
aF1795.6627814186415
aF1904.8338922189491
aF1523.629863824555
aF1326.1592762133362
aF1415.1273386402274
aF1024.6273035439128
aF2191.067474614184
aF1086.4548975438126
aF372.91888825407443
aF741.1822574490649
aF965.1366311285971
asS'Pyruvateoxidation_pyruvate__acetyl_CoA'
p209
(lp210
F5463.738743098813
aF11737.156933752125
aF1760.451023392054
aF4192.110049664309
aF3020.536202913924
aF2573.684527313011
aF8552.141192493855
aF1799.1915490950348
aF2506.8445525397583
aF626.6014018926503
aF2107.8624643270223
aF2834.3121119842103
aF4706.342394284587
aF2288.719960745358
aF3028.9944376736626
aF4523.604574177281
aF3584.2194840054644
aF4106.125972821662
aF2086.9300995402227
asS'Ergocalciferolbiosynthesis'
p211
(lp212
F0.0
aF0.0
aF0.0
aF0.0
aF0.0
aF0.0
aF0.0
aF0.0
aF0.0
aF0.0
aF0.0
aF0.0
aF0.0
aF0.0
aF0.0
aF0.0
aF0.0
aF0.0
aF0.0
asS'Phosphatidylcholine_PC_biosynthesis_PE__PC'
p213
(lp214
F32.59168853111499
aF1.7558058056066858e-10
aF26.108821821678394
aF19.5375170072447
aF432.6411497888299
aF115.04015076130383
aF2.6283682634622583
aF17.50526775061549
aF415.64659041438426
aF65.39633625192641
aF3.0731821756268554
aF146.12837049167578
aF222.21489569301727
aF28.81608201784478
aF1.775861953600241
aF14.928318392767576
aF47.02232192009576
aF269.3118535733504
aF149.88052379483983
asS'Sphingosinebiosynthesis'
p215
(lp216
F0.0
aF1.5416696630936204
aF84.34224700287191
aF0.0
aF0.0
aF0.0
aF0.0
aF0.0
aF0.0
aF0.0
aF0.0
aF8.456912007928927e-05
aF0.0
aF0.0
aF0.0
aF0.00010989130563018398
aF0.0
aF0.0
aF0.010170216734801238
asS'Formaldehydeassimilation_xylulosemonophosphatepathway'
p217
(lp218
F450.65737164424297
aF446.0131119379719
aF452.71179598294424
aF1834.3187386587826
aF1429.5187012566169
aF1182.562995100873
aF2054.3478977222508
aF1054.7585567867975
aF964.6716881118448
aF725.6897699590877
aF2.8533940021545067e-08
aF780.4023124083969
aF0.017942831157208287
aF602.6676627557143
aF507.9358575380818
aF474.12017760438863
aF464.3039365604573
aF944.881470575265
aF875.4070871936981
asS'ComplexII_succinatedehydrogenase_fumaratereductase__succinatedehydrogenase_ubiquinone_'
p219
(lp220
F0.0
aF0.0
aF0.0
aF0.0
aF0.0
aF0.0
aF0.0
aF0.0
aF0.0
aF0.0
aF0.0
aF0.0
aF0.0
aF0.42689926605380263
aF0.0
aF0.00022851379466645253
aF0.0
aF0.0
aF0.0
asS'PTSsystem_fructose_specificIIcomponent'
p221
(lp222
F0.0384192352595271
aF9.732117902196755e-05
aF6.289420269922063e-08
aF10.109387915794674
aF0.6293497163477169
aF34.51901605900811
aF0.289981714917301
aF3.192307342230773
aF8.391266045299746
aF5.229800806759767
aF0.1399519040745333
aF1.2503317658421125
aF0.0
aF9.237801605270852e-05
aF1.4347470881388333e-05
aF0.0
aF0.0
aF0.0
aF0.2178748929741762
asS'C10_C20isoprenoidbiosynthesis_non_planteukaryotes'
p223
(lp224
F0.0018531403397341283
aF5.5556418580536615e-09
aF767.9690444450043
aF0.0
aF0.0
aF4.764577428484303e-10
aF3.5376627974282108e-12
aF0.00046040699710510346
aF0.002653685497548418
aF465.65959796193596
aF0.0
aF0.13729020021407756
aF0.0008820362169576538
aF4.900720158396753e-08
aF22.396701877781116
aF0.0023076153785039897
aF270.3556535775646
aF4.13583980108768e-08
aF0.002234339826609979
asS'Flavonoidbiosynthesis_naringenin__pelargonidin'
p225
(lp226
F0.0
aF0.0
aF0.0
aF0.0
aF0.0
aF0.0
aF0.0
aF0.0
aF0.0
aF0.0
aF0.0
aF0.0
aF0.0
aF0.0
aF0.0
aF0.0
aF0.0
aF0.0
aF0.0
asS'C5isoprenoidbiosynthesis_non_mevalonatepathway'
p227
(lp228
F10744.520026393157
aF4156.8924368070575
aF14018.326778049706
aF10706.178987539946
aF9266.45688126673
aF8775.382470889943
aF11120.120728977497
aF9090.846011706059
aF6114.789633279295
aF10574.547479384977
aF7598.508251625633
aF10685.119307210722
aF13936.911901558911
aF10755.789119549478
aF7309.14332532438
aF8314.199409605293
aF4471.7998452496895
aF13128.968462914718
aF14919.38307360117
asS'Pyruvate_ferredoxinoxidoreductase'
p229
(lp230
F1983.8570899823364
aF131.35043102692123
aF1580.6646943080862
aF2579.371947815533
aF756.9802410187309
aF2573.684527313011
aF104.8923851527383
aF1535.7941838832476
aF2074.607736708146
aF626.6014018926503
aF2107.8624643270223
aF1328.7223413618028
aF3220.585878101406
aF2288.719960745358
aF3028.9944376736626
aF4523.604574177281
aF3584.2194840054644
aF3294.7355331974363
aF2086.9300995402227
asS'Antibiotictransportsystem'
p231
(lp232
F12925.454562068679
aF13624.256016749221
aF11639.564601916387
aF15775.871770368585
aF16381.703305523799
aF13973.011281901523
aF12821.473910423989
aF9742.077427561686
aF10311.183215633971
aF14579.890281793763
aF10589.51667860891
aF13609.727186886417
aF18336.640969830154
aF11186.422581255089
aF12142.082361475605
aF11770.007968502721
aF11179.278010797307
aF13907.021472845447
aF12776.619340369687
asS'Molybdatetransportsystem'
p233
(lp234
F4986.669472797197
aF1426.1598166335953
aF6374.896752266488
aF5677.966239871469
aF3906.21012898738
aF5392.442747703968
aF3516.8558440279144
aF6383.149087703063
aF5407.6276856083705
aF6677.202387964416
aF3215.925239087693
aF3437.2127911936595
aF5964.0230547278425
aF2855.236358394197
aF4166.132513132971
aF4606.985308243654
aF5043.560484180088
aF3988.9448554729533
aF6213.028628287354
asS'Bileacidbiosynthesis_cholesterol__chenodeoxycholate'
p235
(lp236
F0.0
aF0.0
aF0.0
aF0.0
aF0.0
aF0.0
aF0.0
aF0.0
aF0.0
aF0.0
aF0.0
aF0.0
aF0.0
aF0.0
aF0.0
aF0.0
aF0.0
aF0.0
aF0.0
asS'Immunoproteasome'
p237
(lp238
F0.0
aF0.0
aF0.0
aF0.0
aF0.0
aF0.0
aF0.0
aF0.0
aF0.0
aF0.0
aF0.0
aF0.0
aF0.0
aF0.0
aF0.0
aF0.0
aF0.0
aF0.0
aF0.0
asS'Cholecalciferolbiosynthesis'
p239
(lp240
F0.0
aF0.0
aF0.0
aF0.0
aF0.0
aF0.0
aF0.0
aF0.0
aF158.81079676401765
aF0.0
aF0.0
aF0.0
aF0.0
aF0.0
aF0.0
aF0.0
aF0.0
aF0.0
aF0.0
asS'Pantothenatebiosynthesis_valine_L_aspartate__pantothenate'
p241
(lp242
F9295.701644838424
aF10731.441750466174
aF10600.861166343822
aF3853.3537822936228
aF9531.09104628605
aF10585.945408385465
aF12575.965311004718
aF9567.557195511868
aF3599.259002458779
aF7628.890657485053
aF10568.000402078442
aF3995.874274725315
aF11943.103799042132
aF7484.992212786648
aF8807.516206047383
aF7708.313746410347
aF8801.597391809571
aF7422.920896768053
aF8666.241877446218
asS'Dipeptidetransportsystem'
p243
(lp244
F492.3070767081177
aF106.33209853493851
aF339.8391833216716
aF634.8621439921224
aF788.0275925485893
aF920.0599147638843
aF652.8335581982396
aF1541.7396484437209
aF429.0159633424427
aF635.838269684061
aF226.51084814914034
aF672.3567805911364
aF252.92862604028358
aF242.51446031532166
aF729.0090899192936
aF359.7298563215809
aF430.7086008530971
aF246.75555953901312
aF285.2095060650255
asS'MicrocinCtransportsystem'
p245
(lp246
F284.1170513254967
aF0.02699134881339855
aF28.90993586107308
aF86.3649838368372
aF137.61560440814904
aF150.01689402374663
aF332.9171840397448
aF198.68070177071522
aF253.71181189417197
aF111.12613431160446
aF144.72253289133246
aF54.33804045102443
aF157.47007496617096
aF70.66379100013748
aF51.477554948949006
aF142.08870978369447
aF617.8686407703354
aF166.68158998236737
aF171.4426865782308
asS'Hemophore_metalloproteasetransportsystem'
p247
(lp248
F0.0
aF0.0
aF0.0
aF0.0
aF0.0
aF0.0
aF0.0
aF0.01607115646229338
aF0.0
aF6.987524283967953
aF0.0
aF0.0017807715087689603
aF0.0
aF0.0
aF58.274010142129356
aF0.0
aF0.016633889870755588
aF0.31964634335849396
aF0.0
asS'Abscisicacidbiosynthesis_beta_carotene__abscisicacid'
p249
(lp250
F0.0
aF0.0
aF0.0
aF0.0
aF0.0
aF0.0
aF0.0
aF0.0
aF0.0
aF0.0
aF0.0
aF0.0
aF0.0
aF0.0
aF0.0
aF0.0
aF0.0
aF0.0
aF0.0
asS'Glyoxylatecycle'
p251
(lp252
F1263.9634257815646
aF1110.5321748210117
aF903.3647228850186
aF0.0
aF473.8817250621878
aF994.6415488480297
aF331.45342585644465
aF1644.2056956597812
aF0.0
aF0.023126615043553
aF5.468893571476215e-06
aF564.2525629600727
aF217.07784315147825
aF835.5761237267049
aF678.2600541856655
aF308.5332968113606
aF7.676676454476593e-05
aF302.80226660926
aF397.77164434282787
asS'Citratecycle_secondcarbonoxidation'
p253
(lp254
F3.717911906947357e-05
aF1912.0539259550187
aF5734.1996814411405
aF6.897700515968746e-10
aF2953.486848788821
aF1673.0675970709772
aF0.0
aF2035.6511507245473
aF2353.1338093339573
aF1.8183326999371283
aF2590.857069027377
aF425.2363842654231
aF29.57031532184833
aF103.72343578778492
aF987.5432751721407
aF127.06525767248584
aF1831.6146762577903
aF4153.612587303705
aF19.959590739474656
asS'Tyrosinedegradation_tyrosine__homogentisate'
p255
(lp256
F0.0
aF0.0
aF0.0
aF0.0
aF0.0
aF0.0
aF0.0
aF0.0
aF0.0
aF0.0
aF0.0
aF0.0
aF0.0
aF0.0
aF0.0
aF0.0
aF0.0
aF0.0
aF0.0
asS'C4_dicarboxylicacidcycle_NADP__malicenzymetype'
p257
(lp258
F300.84248360441507
aF4.779487200693217e-09
aF38.1919113979675
aF10.939608341140984
aF6.728592441232832
aF9.039241210976892
aF2.420442773639837e-08
aF0.41907406763411226
aF0.0
aF3.4724608869386
aF20.989389069026508
aF0.0
aF14.45373240375124
aF13.585073190171737
aF913.3946802850352
aF9.791042462707038
aF3.8943985973119437
aF0.0
aF7.902434420992739
asS'Cystinetransportsystem'
p259
(lp260
F510.71898970853056
aF13.1215635033982
aF131.1220221590075
aF154.46058175962094
aF275.3172303759548
aF204.79540393423514
aF171.34472510492893
aF202.11194277957745
aF254.82667062220315
aF263.64341489784294
aF293.591209991423
aF899.8176690507302
aF143.77657013133043
aF227.6052994027601
aF305.98887445597177
aF282.41081614451537
aF502.1010310504537
aF437.72296351470806
aF424.477126007349
asS'Biotinbiosynthesis_pimeloyl_CoA__biotin'
p261
(lp262
F4562.4377206063145
aF2855.0684356802785
aF8993.702594768498
aF2882.697014292617
aF6252.387113243114
aF202.22531247443885
aF6817.935470241079
aF4409.107848725695
aF3070.7775256842256
aF1457.2784004492146
aF2833.280844491099
aF4222.606169077117
aF7229.794022518099
aF7.067600798154006
aF513.9484738470076
aF3681.4168294210845
aF5481.5282211273425
aF4411.89884378926
aF2590.3988532725975
asS'Lysinedegradation_lysine__saccharopine__acetoacetyl_CoA'
p263
(lp264
F258.8676895375669
aF1.0221229429404116e-05
aF166.8680048865568
aF221.1232321774331
aF241.70786859032498
aF0.13753701466292856
aF197.30359438631712
aF126.28115292377335
aF115.04097660535196
aF6.073451100890883
aF0.3950567401272006
aF38.089942326881555
aF146.53066028283288
aF191.03849766868518
aF0.1379950975539239
aF0.07809079064551168
aF235.57125632033757
aF426.35735504531056
aF136.02265680324888
asS'ComplexI_NADHdehydrogenase__NADHdehydrogenaseI'
p265
(lp266
F1652.4102869857006
aF0.0
aF40.94494864469706
aF0.0
aF770.5277533027245
aF563.0007425673972
aF7042.102321196866
aF1152.1521304371092
aF0.0
aF0.0
aF506.70449225839104
aF0.0
aF5155.112099214939
aF0.0
aF885.4661680145877
aF984.8429707838412
aF443.16155298417425
aF2874.2471687147504
aF0.0
asS'Putativetungstatetransportsystem'
p267
(lp268
F344.5153393747694
aF63.11549477640074
aF257.0402042771423
aF44.17816470824698
aF0.6887350762669828
aF180.15060347023996
aF0.2270621892566246
aF0.07756584560604528
aF852.7583125795113
aF0.5992935091176382
aF0.25415217723963307
aF0.7534183084392162
aF217.97637742088514
aF134.29074957557998
aF59.06809833656038
aF9.052640797646342
aF96.52768031430526
aF1.2153996988903888
aF525.0038457735262
asS'Cellobiosetransportsystem'
p269
(lp270
F196.8607025791348
aF6.1175536897959535e-09
aF75.86957626290831
aF360.7569475961302
aF104.16891097566976
aF232.73214604109165
aF426.5852164297486
aF335.55404617611305
aF128.93571616013995
aF513.3495187686282
aF371.6892831184629
aF110.36355598053895
aF163.83077814446
aF104.99873606346951
aF130.17399598259348
aF422.837667356282
aF72.52170706625877
aF29.41980039494063
aF527.1494728644063
asS'PTSsystem_ascorbate_specificIIcomponent'
p271
(lp272
F2385.170217767336
aF21194.482601725857
aF8803.019197157953
aF11782.2537813432
aF461.385136938254
aF1393.0773219511586
aF4796.973563279989
aF4738.822323879035
aF5646.410185214184
aF2486.994069343078
aF987.3259030383001
aF8.061937489862866e-05
aF0.0
aF1817.6540300986367
aF0.45114254002925547
aF1.7308420427940718
aF882.9734242120729
aF1058.1517561886303
aF4039.193602762767
asS'Ribosome_archaea'
p273
(lp274
F0.0
aF0.0
aF0.0
aF0.0
aF0.0
aF0.0
aF0.0
aF0.0
aF0.0
aF0.0
aF0.0
aF0.0
aF0.0
aF0.0
aF0.0
aF0.0
aF0.0
aF0.0
aF0.0
asS'f_2_Aminoethylphosphonatetransportsystem'
p275
(lp276
F0.030287858812588202
aF6.541742309688357e-08
aF3.485245992716669e-06
aF0.0009952535528932902
aF0.0
aF0.0
aF0.0
aF0.001143442985475718
aF0.04359520240294393
aF0.0
aF5.850811913142793e-07
aF0.23258462119567813
aF0.00011520060178139336
aF0.0
aF0.0
aF0.0
aF0.120726038652107
aF0.007856477850416476
aF0.0
asS'Methioninebiosynthesis_apartate__homoserine__methionine'
p277
(lp278
F7091.378303695821
aF8414.22867589904
aF3987.2322196787595
aF8812.825370957227
aF3311.4334712133623
aF4035.134393276289
aF9814.603370527202
aF8368.156063750826
aF10360.888711188534
aF9676.357127125928
aF9648.079974813696
aF6981.219990163752
aF4053.46975712838
aF13245.039537124721
aF12227.394949591346
aF6633.166291293914
aF6739.001932436871
aF7355.718288183166
aF8117.629462033602
asS'RaxAB_RaxCtypeIsecretionsystem'
p279
(lp280
F0.0
aF0.0
aF3.989101925338372e-08
aF0.0
aF0.0
aF0.0
aF0.0
aF0.0
aF0.0
aF0.0
aF0.0
aF0.0
aF0.0
aF0.0
aF0.0
aF0.0
aF0.0
aF0.0
aF0.0
asS'Ectoinebiosynthesis'
p281
(lp282
F0.0
aF0.0
aF0.0
aF0.0
aF0.0
aF0.0
aF0.0
aF0.0
aF0.0
aF0.0
aF0.0
aF0.0
aF0.0
aF0.0
aF0.0
aF0.0
aF0.0
aF0.0
aF0.0
asS'TypeIIIsecretionsystem'
p283
(lp284
F0.0
aF0.0
aF0.0
aF0.0
aF0.0
aF0.0
aF0.0
aF0.0
aF0.0
aF0.0
aF0.0
aF0.0
aF0.0
aF0.0
aF0.0
aF0.0
aF0.0
aF0.0
aF0.0
asS'Mannopinetransportsystem'
p285
(lp286
F0.0
aF0.0
aF0.0
aF0.0
aF0.0
aF0.0
aF0.0
aF0.012205294562312454
aF0.0
aF0.0
aF0.0
aF0.0
aF0.0
aF0.0
aF0.0
aF0.0
aF0.0
aF0.0
aF0.0
asS'Ribosetransportsystem'
p287
(lp288
F5754.580905059138
aF3625.714600543321
aF10926.334134163575
aF11032.103090427758
aF10709.685617796176
aF13068.733719992006
aF4765.107133999274
aF16258.271665576221
aF8420.014514203693
aF7799.612481242463
aF5807.029131097868
aF4938.091873235409
aF7241.034337817974
aF4484.853023757994
aF9358.63791194516
aF10470.475202489526
aF5791.7798933083
aF5750.170037462034
aF7362.678547058271
asS'N_Acetylglucosaminetransportsystem'
p289
(lp290
F148.60405343601025
aF0.17741174807471966
aF40.81453102395558
aF1398.1455964285428
aF215.60531280579298
aF1117.8770458801357
aF897.9805065911372
aF1011.4160167971107
aF615.5895142094616
aF812.2747991391865
aF1132.3069855461024
aF699.5313007365422
aF688.7719858696743
aF536.4276132005964
aF495.7938552663165
aF1273.5345482120954
aF211.96288947213844
aF427.37218651433426
aF361.5560719305942
asS'TypeVIsecretionsystem'
p291
(lp292
F0.0
aF0.0
aF0.0
aF0.0
aF0.0
aF0.0
aF0.0
aF0.0
aF0.0
aF0.0
aF0.0
aF0.0
aF0.0
aF0.0
aF0.0
aF0.0
aF0.0
aF0.0
aF0.0
asS'Glycosaminoglycanbiosynthesis_linkagetetrasaccharide'
p293
(lp294
F0.0
aF0.0
aF0.0
aF0.0
aF0.0
aF0.0
aF0.0
aF0.0
aF0.0
aF0.0
aF0.0
aF0.0
aF0.0
aF0.0
aF0.0
aF0.0
aF0.0
aF0.0
aF0.0
asS'Uridinemonophosphatebiosynthesis_glutamine__PRPP___UMP'
p295
(lp296
F17695.808641302276
aF11384.312777380092
aF17272.625368659763
aF21990.01130969067
aF18025.539974525756
aF19130.027229968426
aF19000.220814533306
aF17000.963186974896
aF20696.378799824488
aF21435.375167790437
aF20937.018222170045
aF19695.36280675042
aF16819.50508564683
aF19285.06392134742
aF19207.120512020247
aF17887.99492224238
aF21674.860080749215
aF21136.287586293824
aF18463.520702959642
asS'Glutathionebiosynthesis_glutamate__glutathione'
p297
(lp298
F1507.8142322218646
aF1351.8228435030776
aF2148.0512690195355
aF278.4717196846793
aF650.0239685333398
aF870.4697450578024
aF930.2539114675244
aF2212.954811878989
aF980.2848963309115
aF827.3591731234386
aF272.82701411899194
aF832.5705667478738
aF953.362628427988
aF1246.0226891518282
aF259.92653584855435
aF1190.752878875668
aF1163.6182448394013
aF616.5329033727539
aF1061.1785825225184
asS'PTSsystem_sucrose_specificIIcomponent'
p299
(lp300
F6079.983537637632
aF9996.642131947032
aF3951.282302593986
aF4123.927213589902
aF3815.1645822624346
aF5476.245384158812
aF5047.093269485616
aF4772.192633770085
aF4751.67725729075
aF9150.963319563123
aF1579.20648462012
aF3733.316256487658
aF2482.4385874694913
aF6912.115286243568
aF3130.61943907055
aF5370.638805137429
aF4355.714705473114
aF2470.4067039828
aF5829.129406715603
asS'Sorbitol_mannitoltransportsystem'
p301
(lp302
F48.31919795545347
aF6.684442948655374e-08
aF40.17006843317797
aF397.9022018784285
aF94.40449175248021
aF275.6935751671958
aF107.131594836632
aF462.0196778444513
aF409.56105782560564
aF357.6567492999546
aF41.99873652252846
aF0.21236667805812218
aF175.31256945841005
aF65.37397350790415
aF67.733950710367
aF98.04580158389889
aF80.38713697340259
aF83.523224093801
aF237.04011828177613
asS'C1_unitinterconversion_eukaryotes'
p303
(lp304
F621.1104255455364
aF76.74476359267784
aF282.10442934113956
aF354.3330943243087
aF672.6801434674026
aF475.7290801348413
aF92.55726486825242
aF457.13324570349926
aF554.3695711855731
aF729.35524714387
aF676.2436390630133
aF908.6365437232722
aF989.1842399567072
aF612.3432078179317
aF177.66650025715435
aF1147.5248412131475
aF1019.8905663858919
aF486.459184147098
aF305.54634133232736
asS'Adhesinproteintransportsystem'
p305
(lp306
F0.0
aF0.0
aF0.0
aF0.0
aF0.0
aF0.0
aF0.0
aF0.0
aF0.0
aF0.0
aF0.0
aF0.0
aF0.0
aF0.0
aF0.0
aF0.0
aF0.0
aF0.0
aF0.0
asS'CoenzymeMbiosynthesis'
p307
(lp308
F0.0
aF3.4135664766086213e-10
aF0.0
aF0.0
aF0.0
aF0.0
aF0.0
aF0.0
aF0.0
aF0.0
aF0.0
aF0.0
aF4400.626973441304
aF0.0
aF0.0
aF0.0
aF0.0
aF0.0
aF0.0
asS'Cytochromeb6fcomplex'
p309
(lp310
F0.0
aF0.0
aF0.0
aF0.0
aF0.0
aF0.0
aF0.0
aF0.0
aF0.0
aF0.0
aF0.0
aF0.0
aF0.0
aF0.0
aF0.0
aF0.0
aF0.0
aF0.0
aF0.0
asS'Fructosetransportsystem'
p311
(lp312
F1.1549545983817073
aF6.343427518854907e-07
aF82.54853918965641
aF195.3940186392575
aF91.03048695910115
aF61.42997655944691
aF80.2823598080586
aF289.6402556903581
aF151.44711585690368
aF97.13144218530964
aF63.56125307308194
aF0.018648486206455605
aF2.47892877236558
aF57.176373214978845
aF22.23831273028881
aF64.79159076929936
aF26.438751519414915
aF290.16156209013326
aF0.39238647189076314
asS'TypeIIgeneralsecretionsystem'
p313
(lp314
F0.0
aF0.0
aF0.0
aF0.0
aF0.0
aF0.0
aF0.0
aF0.0
aF0.0
aF0.0
aF0.0
aF0.0
aF0.0
aF0.0
aF0.0
aF0.0
aF0.0
aF0.0
aF0.0
asS'PTSsystem_galactitol_specificIIcomponent'
p315
(lp316
F786.9560307280259
aF11143.850122267233
aF2039.1730589008453
aF2857.5424639924113
aF2077.621599784797
aF682.2230639326482
aF1720.467934313073
aF4171.43450788737
aF4278.019910957754
aF1004.1330638203527
aF34.47191882232417
aF2096.8484347755852
aF1517.4159227746582
aF2357.412026541775
aF1118.3376586673548
aF1708.636151105732
aF908.6953522205082
aF872.3098526375678
aF0.0
asS'Ubiquinonebiosynthesis_prokaryotes_chorismate__ubiquinone'
p317
(lp318
F1234.4398454755656
aF0.0
aF0.0
aF8.193466071678583e-08
aF42.859372387326076
aF0.0
aF1802.8374581111161
aF1525.1745208969953
aF0.0
aF0.0
aF0.0
aF0.0
aF0.0
aF144.8048696945221
aF0.0
aF521.0225475301428
aF0.0
aF5.498767087716002
aF0.0
asS'Aminoacyl_tRNAbiosynthesis_eukaryotes'
p319
(lp320
F19457.520209996997
aF10018.453483526902
aF18417.411681404614
aF16748.039035597583
aF21558.60212799819
aF19610.123097349275
aF18735.304863814457
aF13517.978757151226
aF18738.362315528753
aF18926.08222518455
aF21839.644133032012
aF21945.146182833185
aF21318.548306474906
aF18685.21940914965
aF19855.18834101015
aF20828.687373727495
aF24935.325691005917
aF21683.749727394395
aF20307.01064083528
asS'Serinebiosynthesis_glycerate_3P__serine'
p321
(lp322
F13098.928783693264
aF6301.273232804926
aF8599.670456318689
aF13428.906785419993
aF11195.613783080666
aF6837.758157416413
aF14779.55262558224
aF5604.3836461429355
aF13447.536703542804
aF9213.347937838333
aF8952.036078421346
aF9205.989226964053
aF10307.87514158628
aF18453.851912432518
aF12240.124096750675
aF4834.458882597791
aF7358.662158792868
aF13918.696059088112
aF4841.611142912581
asS'Capsaicinbiosynthesis_L_Phenylalanine__Capsaicin'
p323
(lp324
F0.0
aF0.0
aF0.0
aF0.0
aF0.0
aF0.0
aF0.0
aF0.0
aF0.0
aF0.0
aF0.0
aF0.0
aF0.0
aF0.0
aF0.0
aF0.0
aF0.0
aF0.0
aF0.0
asS'Sulfurreduction_sulfate__H2S'
p325
(lp326
F420.930426897456
aF1.9245296026593524
aF37.670268953605486
aF634.8896102010001
aF316.06275629301444
aF1598.828056654207
aF250.1320278826433
aF499.2802850425151
aF697.0162332648973
aF132.96638543541576
aF39.16459171532284
aF181.55235097672465
aF156.99248987298503
aF674.8993911630708
aF457.41169450927976
aF85.8492475677648
aF177.03725900256143
aF95.09044449308712
aF428.3552159825689
asS'Multipleproteintransportsystem'
p327
(lp328
F0.0
aF0.0
aF0.0
aF0.0
aF0.0
aF0.0
aF0.0
aF0.0
aF0.0
aF0.0
aF0.0
aF0.0
aF0.0
aF0.0
aF0.0
aF0.0
aF0.0
aF0.0
aF0.1392908835981803
asS'MCMcomplex'
p329
(lp330
F0.1893537547144763
aF0.0
aF0.0
aF0.0
aF112.5029109504232
aF0.0
aF0.0
aF0.0
aF80.19975185559385
aF0.0
aF2.05828459064672e-06
aF85.50135897867044
aF0.022588781011836714
aF0.0
aF4.060424350587148e-07
aF0.0
aF0.9743910384716035
aF0.48788126772163887
aF0.0
asS'Ureacycle'
p331
(lp332
F351.3694677599357
aF76.60768663907515
aF136.46352172403937
aF38.10800725245724
aF203.59108929748766
aF26.100665948982105
aF45.23485119316097
aF76.4851404284765
aF285.9834632971021
aF79.71559736429381
aF153.4651769591711
aF86.12714407342628
aF64.97508625997432
aF12.654772307835469
aF73.4618328783002
aF162.24602778010726
aF130.93977757373202
aF305.4697576248274
aF59.27892709209873
asS'Formaldehydeassimilation_ribulosemonophosphatepathway'
p333
(lp334
F7555.186750126638
aF98.70381122601894
aF739.5554961209797
aF5989.936428377825
aF3090.5075203029874
aF643.0363699879247
aF1528.4669011432838
aF2687.1002665668625
aF2305.403674676794
aF29.05266968200417
aF3980.332804919949
aF124.50972627802038
aF6719.7692232376
aF2128.93811089142
aF3482.49176727051
aF4223.8990878985105
aF2802.7280850309717
aF8100.7191155789305
aF1528.4890094222687
asS'RNApolymeraseII_eukaryotes'
p335
(lp336
F0.0
aF0.0
aF0.0
aF0.0
aF0.0
aF0.0
aF0.0
aF0.0
aF0.0
aF0.0
aF0.0
aF0.0
aF0.0
aF0.0
aF0.0
aF0.0
aF0.0
aF0.0
aF0.0
asS'RF_Ccomplex'
p337
(lp338
F233.05578909190177
aF0.40128642532579795
aF35.39840405441319
aF2.534053767352362
aF7.60000764917876
aF5.965682164288209
aF0.5364849449908201
aF1.0455895357421396
aF0.12178876629625213
aF139.95930641166726
aF37.62303756193347
aF2.9500362082244824
aF9.899731822331912
aF0.07242591486548292
aF0.8916708515354685
aF5.229087820054183
aF22.10700527098848
aF12.72509236922759
aF0.059706682268467544
asS'Entner_Doudoroffpathway_glucose_6P__glyceraldehyde_3P_pyruvate'
p339
(lp340
F2438.2011264812845
aF1138.0180765057378
aF1234.6762525942988
aF24.865169613536054
aF360.7936787924631
aF593.9959934598173
aF2117.002661880469
aF3797.910153680017
aF657.6923913258306
aF890.8241273936302
aF49.05414742349218
aF177.83903898478255
aF0.3798512952225739
aF0.6751734770245141
aF660.7206260460791
aF848.3535539004267
aF666.833787461424
aF8.995961359260631
aF0.007272761643912979
asS'Cysteinebiosynthesis_homocysteine_serine__cysteine'
p341
(lp342
F2245.272859981372
aF1856.3813308737865
aF377.3861412116709
aF5457.022705102064
aF1648.4675730245112
aF1831.7514508341935
aF3635.76805916008
aF1188.5735487272202
aF6355.257103813547
aF3525.154967623979
aF6116.253866568332
aF4251.261317303445
aF1877.0671796843637
aF5657.1403840890725
aF2908.5571278084744
aF4291.459471429784
aF2136.8921432327256
aF5817.084532686848
aF2928.0907530743416
asS'Zinc_manganesetransportsystem'
p343
(lp344
F2209.3231675860256
aF948.6810965932364
aF2008.9717434904835
aF5732.762378643483
aF1840.7550741704777
aF355.74678568702603
aF5014.681495680606
aF275.1713305020928
aF6032.484714791456
aF3316.5686057109474
aF2150.134042740507
aF2640.758841674405
aF746.1145094736828
aF8088.7001143248735
aF4669.800665125094
aF1492.817596011727
aF458.1875861872321
aF2306.5180789342016
aF2184.838309480116
asS'Ribosome_eukaryotes'
p345
(lp346
F0.0
aF0.0
aF0.0
aF0.0
aF0.0
aF0.0
aF0.0
aF0.0
aF0.0
aF0.0
aF0.0
aF0.0
aF0.0
aF0.0
aF0.0
aF0.0
aF0.0
aF0.0
aF0.0
asS'Trehalose_maltosetransportsystem'
p347
(lp348
F0.1885358286642311
aF0.0
aF0.0
aF35.67087762775137
aF28.41173200463755
aF4.749168048971435
aF33.967077092758
aF6.46334555646367
aF0.03697416906956353
aF2.698172200230522
aF18.719407725067125
aF0.1631915528444259
aF0.0
aF3.027200828747728e-08
aF10.485044975742271
aF1.8993938096479347e-06
aF0.023555312190241803
aF7.570010636235449e-06
aF0.0
asS'Tryptophanmetabolism_tryptophan__kynurenine__2_aminomuconate'
p349
(lp350
F0.018799180892002672
aF0.0
aF3.531661058312392e-05
aF0.0
aF0.7143270871332289
aF0.0
aF0.0
aF0.0
aF0.0
aF0.03557897239754382
aF50.25959001124026
aF0.0
aF0.0
aF0.0
aF0.0
aF0.0
aF0.0
aF0.00025803875917326504
aF0.0
asS'PutativeABCtransportsystem'
p351
(lp352
F5.929977159503164e-07
aF3.625617803292498
aF1.306032468666704
aF0.003810298582666742
aF85.77521225078151
aF2.185520007305602
aF65.30037029033879
aF0.01266535030334305
aF1.0359626767133054
aF0.23538400603510629
aF2.9059000130104367
aF0.0020665886259381185
aF1.4900655925865895e-07
aF61.70461161103813
aF38.08517528761797
aF5.580742988616081
aF14.60568695700259
aF0.09678133635524303
aF52.79828678645872
asS'C5isoprenoidbiosynthesis_mevalonatepathway'
p353
(lp354
F2026.146593057085
aF259.4417571900927
aF1.4711499781626346e-06
aF3.032680341610721e-07
aF338.9301403033451
aF4.5703490393360075e-08
aF5.667487709796283
aF0.016462744068281812
aF3.135715642695028e-07
aF0.004797621293973522
aF46.994693639287156
aF0.000290031518422551
aF1.1820500708441414e-07
aF7.494535472030611e-09
aF1.1586624168362178
aF6.997090623344911
aF0.0086647463700925
aF4.3223840076618424e-08
aF1.6789694936266522
asS'ABC_2typetransportsystem'
p355
(lp356
F14124.057840883721
aF17149.929201058334
aF13840.682214700548
aF18635.964976701256
aF18714.296870594782
aF12691.549112083605
aF13986.280951599741
aF11438.423454259912
aF14173.488647973325
aF12758.219980815444
aF13772.72391594194
aF10151.21462680722
aF12251.726195976089
aF15628.142720908281
aF14913.009954390103
aF13541.670576635086
aF13264.361125746978
aF12621.95038327548
aF12639.528058613343
asS'Steroidhormonebiosynthesis_cholesterol__prognenolone__progesterone'
p357
(lp358
F0.0
aF0.0
aF0.0
aF0.0
aF0.0
aF0.0
aF0.11981666014347668
aF0.001993530076758773
aF0.0
aF0.0
aF0.0
aF0.0
aF0.0
aF0.0
aF0.0
aF0.0
aF217.56560201628122
aF0.0
aF0.0
asS'Phosphatidylethanolamine_PE_biosynthesis_PA__PS__PE'
p359
(lp360
F7143.509621170338
aF3837.6107181891807
aF10136.941163804613
aF6211.008033147291
aF6037.491735178997
aF7136.007706379594
aF8178.582829853254
aF6615.433935625803
aF5480.8981126193985
aF8997.539395199565
aF7098.13483106721
aF6558.355041630819
aF11973.277972824118
aF7687.355119585357
aF9076.809643192002
aF8608.177552509944
aF10736.658108220781
aF6349.018435907976
aF8306.437757336897
asS'Glutamatetransportsystem'
p361
(lp362
F2421.07025865898
aF384.06125539773825
aF402.97569421287204
aF2172.446542590688
aF1226.6185429466425
aF4055.525434556605
aF4257.776251852381
aF1.6386471069036943
aF7813.978836191028
aF6424.934843952834
aF3656.8818336077547
aF3713.653645519858
aF1001.3228633595221
aF7900.38760079057
aF5262.240200241139
aF2166.1909852262065
aF1094.0750608873561
aF4548.3562038639275
aF2103.139394207229
asS'Methaneoxidation_methylotroph_methane__CO2'
p363
(lp364
F3.874882262743
aF13.294861246822851
aF32.39142890495414
aF167.48323718439036
aF53.615884096141635
aF74.54980545148062
aF42.577483261468615
aF186.87971045230432
aF8.142121800276248
aF85.90057194814351
aF4.674238267626456
aF3.9690249245342297
aF5.597771187947985
aF27.036274806751834
aF8.810169002571852
aF133.57913373400217
aF3.1560348721361073
aF18.411189012688965
aF5.497398685697541
asS'RNApolymeraseI_eukaryotes'
p365
(lp366
F0.0
aF0.0
aF0.0
aF0.0
aF0.0
aF0.0
aF0.0
aF0.0
aF0.0
aF0.0
aF0.0
aF0.0
aF0.0
aF0.0
aF0.0
aF0.0
aF0.0
aF0.0
aF0.0
asS'MRNcomplex'
p367
(lp368
F0.0
aF0.0
aF0.5924954108345458
aF286.7297714085721
aF0.0035518486554236357
aF163.26051421732075
aF0.0
aF0.0
aF67.45048029813098
aF0.0
aF386.3666498729141
aF0.0
aF0.0
aF136.2014912880013
aF198.00883746801298
aF3.8508270294049183
aF0.0
aF160.03748987067576
aF186.64631048560435
asS'CoenzymeAbiosynthesis_pantothenate__CoA'
p369
(lp370
F13356.459934552922
aF14899.016946765654
aF18929.703492154076
aF12685.560336105475
aF14478.2110953516
aF17264.738132243052
aF16051.326767583661
aF12808.16022679724
aF18376.314805612918
aF15864.74002128581
aF15807.321740032678
aF20197.219825463366
aF14872.165548931333
aF17910.474986820795
aF17526.97231013623
aF21956.50758941981
aF22268.465262645663
aF17260.75476601747
aF21983.205331231835
asS'PhotosystemII'
p371
(lp372
F0.0
aF0.0
aF0.0
aF0.0
aF0.0
aF0.0
aF0.0
aF0.0
aF0.0
aF0.0
aF0.0
aF0.0
aF0.0
aF0.0
aF0.0
aF0.0
aF0.0
aF0.0
aF0.0
asS'Menaquinonebiosynthesis_chorismate__menaquinone'
p373
(lp374
F0.0
aF0.0
aF0.0
aF0.0
aF0.0
aF0.0
aF0.0
aF1.3793858982810374e-10
aF1.0068148626566524
aF245.14366544954916
aF0.0
aF0.0
aF0.0
aF0.0
aF0.0
aF0.0
aF0.0
aF1819.622727739532
aF0.0
asS'Keratansulfatedegradation'
p375
(lp376
F279.44960110567797
aF346.9252703510781
aF628.9973702787066
aF27.71375393615516
aF236.09986024950788
aF52.91256069727148
aF114.36684659548598
aF58.33969295600826
aF184.90010023206096
aF0.0
aF61.29165621748331
aF86.08660677552622
aF13.556693862872303
aF8.637032663137672e-07
aF17.157581912472786
aF252.60850308283585
aF56.72579576601244
aF118.30305273299514
aF97.5276740998397
asS'Glycolysis_Embden_Meyerhofpathway__glucose__pyruvate'
p377
(lp378
F19117.424464283802
aF17427.877064579527
aF20558.416317900184
aF20942.564725381904
aF25763.87555433527
aF21286.663657702684
aF19661.7120622407
aF16918.364305709383
aF20474.203569838683
aF20185.242417640555
aF23172.022793446085
aF20807.347428428635
aF20745.5451059827
aF21241.77138617046
aF22281.36773503969
aF20211.491142309635
aF21508.816605222975
aF21037.42556223382
aF22973.167736510502
asS'F_typeATPase_bacteria'
p379
(lp380
F17278.185938218747
aF16214.155067917225
aF14249.348434236414
aF16159.22901690552
aF14331.641831834286
aF15870.835228021724
aF17873.473889001
aF12268.220962583357
aF22138.180521572267
aF23209.917224688837
aF19437.0629060066
aF20412.1810844307
aF17961.621397516516
aF16885.282630834987
aF20889.68266277977
aF22454.978703296667
aF17418.86887714959
aF16998.817075147155
aF18569.570767938265
asS'Conjugatedbileacidbiosynthesis_choloyl_CoA__taurocholate_glycocholate'
p381
(lp382
F0.21380821068125305
aF0.0
aF0.0
aF0.0
aF0.0
aF415.020796081312
aF0.0
aF0.0
aF1.2211146567481508
aF0.0
aF0.0
aF0.0
aF439.91183692381253
aF0.0
aF0.0
aF0.0
aF0.0
aF0.0
aF0.0
asS'V_typeATPase_prokaryotes'
p383
(lp384
F7159.460511587352
aF7852.888758115555
aF13602.908699171336
aF11046.856692387495
aF13571.60764643981
aF11684.573023377834
aF4446.374906370664
aF12547.091718670708
aF5027.971479604813
aF10406.36157356121
aF7900.59713187491
aF4582.207342574197
aF8408.91801194536
aF6187.451297865191
aF6432.442179261789
aF10423.745036677432
aF6177.664880682936
aF7692.846190564241
aF7311.2241747030985
asS'Glycosaminoglycanbiosynthesis_heparansulfatebackbone'
p385
(lp386
F0.0
aF0.0
aF0.0
aF0.0
aF0.0
aF0.0
aF0.0
aF0.0
aF0.3460582342360891
aF0.0
aF0.0
aF0.0
aF5.069913411327392e-06
aF0.0
aF0.0
aF4.894557814051648e-05
aF0.0
aF0.0
aF0.0
asS'ComplexIV_Cytochromecoxidase__cytochromecoxidase_cbb3_type'
p387
(lp388
F14.206170010047277
aF0.0
aF0.0
aF0.0
aF315.98641253717136
aF0.0
aF0.0
aF358.0818514759659
aF0.0
aF0.0
aF365.5329914390584
aF0.0
aF0.0
aF224.90909076899925
aF0.10699164823256793
aF0.0
aF0.0
aF0.0
aF2.895753116642509
asS'Ascorbatebiosynthesis_plants_glucose_6P__ascorbate'
p389
(lp390
F0.0
aF0.0
aF0.0
aF0.0
aF0.0
aF0.0
aF0.0
aF0.0
aF0.0
aF0.0
aF0.0
aF0.0
aF0.0
aF0.0
aF0.0
aF0.0
aF0.0
aF0.0
aF0.0
asS'Sphingosinedegradation'
p391
(lp392
F131.9865780780265
aF0.01098658961749613
aF141.72874009732095
aF6.6779438358012575
aF0.04861240132691597
aF0.46050461684312033
aF1.0995500123501054
aF0.0005957235038252394
aF0.03408961138670104
aF0.011715895726490393
aF173.40877185542197
aF0.00033078640983294944
aF0.012421759847817689
aF154.12074131857375
aF196.9197503331182
aF0.18900400613783488
aF24.36554106403123
aF0.0020187220504391465
aF8.457417698518839
asS'N_glycanbiosynthesis_complextype'
p393
(lp394
F0.0
aF0.0
aF0.0
aF0.0
aF0.0
aF0.0
aF0.0
aF0.0
aF0.0
aF0.0
aF0.0
aF0.0
aF0.0
aF0.0
aF0.0
aF0.0
aF0.0
aF0.0
aF0.0
asS'Methioninesalvagepathway'
p395
(lp396
F0.2445818715987973
aF8.926044070600753e-09
aF1.648264551139659e-05
aF10.750859223337152
aF14.546293066121965
aF14.861934293142195
aF580.3888393389101
aF70.72076053471372
aF905.7919023775835
aF1117.9776809953619
aF5.672410674675579e-09
aF0.16212842896753116
aF0.0
aF245.88265312148792
aF817.2793671263391
aF780.5838218143161
aF1517.5117214805675
aF495.16678823227676
aF2.563219721699219
asS'Reductiveacetyl_CoApathway_Wood_Ljungdahlpathway_'
p397
(lp398
F0.0
aF0.0
aF0.0
aF0.0
aF0.0
aF0.0
aF0.0
aF0.0
aF0.0
aF0.0
aF0.0
aF0.0
aF0.0
aF0.0
aF0.0
aF0.0
aF0.0
aF0.0
aF0.0
asS'VitaminB12transportsystem'
p399
(lp400
F0.0
aF0.7157433994342681
aF35.1374205107519
aF1.4246562033481274e-05
aF0.0
aF8.698967211282842
aF0.0
aF24.2017568632138
aF3.4263354791747584
aF0.32499114441226706
aF0.15252249796420456
aF35.13098582015927
aF0.0
aF0.0
aF26.183533011479664
aF0.0
aF9.168920084301778
aF2.3218297476949554
aF0.0
asS'Methanogenesis_acetate__methane'
p401
(lp402
F0.0
aF0.0
aF0.0
aF0.0
aF0.0
aF0.0
aF0.0
aF0.0
aF0.0
aF0.0
aF0.0
aF0.0
aF0.0
aF0.0
aF0.0
aF0.0
aF0.0
aF0.0
aF0.0
asS'Histidinebiosynthesis_PRPP__histidine'
p403
(lp404
F10797.408327541765
aF6229.074712236971
aF7267.703017103162
aF11337.41020543982
aF15900.868342066791
aF11972.285043420212
aF12033.56609261592
aF8530.553249861177
aF12443.700818910722
aF13089.744065951681
aF14828.817433062559
aF11976.86618923036
aF15509.60907934109
aF12569.194714689245
aF13863.11102411268
aF12451.457225442799
aF12251.019194390768
aF11576.976204088427
aF16117.925667469788
asS'C4_dicarboxylicacidcycle_NAD__malicenzymetype'
p405
(lp406
F293.92782682110646
aF1185.944258033472
aF58.30964294940677
aF135.34673040120168
aF229.53026536896945
aF171.86147615148045
aF254.78554684376817
aF393.8001023548019
aF118.92700188242102
aF213.4144542394805
aF235.18142174480337
aF279.28182553759837
aF258.48391760144517
aF77.10893325165374
aF0.3462370229093859
aF176.16872847465154
aF90.29112278410706
aF141.29491011863567
aF343.907875734151
asS'PTSsystem_arbutin_likeIIcomponent'
p407
(lp408
F914.7019908940233
aF1289.7218902940967
aF1309.6240102593463
aF1080.7312267424475
aF1085.4544477183408
aF237.6462347061416
aF2304.213711154165
aF3456.7404999566106
aF1594.467257751838
aF3320.0548304487925
aF74.49151383555252
aF2125.809405723977
aF1444.5846594900647
aF1750.6266803853641
aF1007.058931766355
aF2019.042564780424
aF1142.7620300288272
aF2352.2117614521203
aF4233.86616107172
asS'Octopine_nopalinetransportsystem'
p409
(lp410
F0.3220874168608814
aF0.08641518041850443
aF1.0782181809687672
aF2.1150624729698584
aF1.3896711025281014
aF3.1258532776816503
aF1.0214625230348326
aF0.1416468492262759
aF3.017577103916141
aF1.1939722019729138
aF7.9568797963824025
aF42.82891776013669
aF0.219127416302614
aF2.8590021897407505
aF0.6196772077591465
aF2.725512664413988
aF5.5775812197001065
aF0.7799559542548167
aF3.617532030058573
asS'Spliceosome_Prp19_CDC5Lcomplex'
p411
(lp412
F6.373173733190623
aF0.0
aF0.0
aF0.0
aF0.0
aF0.0
aF0.0
aF0.0
aF0.0
aF0.0
aF9.253935823153792e-09
aF0.0
aF0.0
aF0.0
aF0.0
aF0.0
aF0.0
aF0.0
aF0.0
asS'Lipopolysaccharidebiosynthesis_innercore__outercore__O_antigen'
p413
(lp414
F0.0
aF0.0
aF0.0
aF0.0
aF0.0
aF0.0
aF0.0
aF0.0
aF0.0
aF0.0
aF0.0
aF0.0
aF0.0
aF0.0
aF0.0
aF0.0
aF0.0
aF0.0
aF0.0
asS'alpha_Glucosidetransportsystem'
p415
(lp416
F123.49811626973282
aF0.06713552987513557
aF96.61209555547762
aF109.76986619947826
aF79.01836313426243
aF71.82713475607376
aF54.80145535055758
aF47.872350609176195
aF140.6662590399736
aF21.218342249733332
aF43.25586297482689
aF37.27612407220699
aF77.40480357475427
aF35.97528795281348
aF103.29112180054106
aF157.7276547789062
aF46.946852221907136
aF90.76476590748902
aF37.63358686773732
asS'Nucleotidesugarbiosynthesis_prokaryotes'
p417
(lp418
F71.31707424695246
aF35.8022459459336
aF171.17745264627465
aF186.56957852133036
aF326.1401693786691
aF25.348576394032936
aF377.78413148429536
aF59.428388367579984
aF49.26196794957357
aF54.590073480103406
aF493.61854616543434
aF775.2267733471402
aF268.10977779440776
aF293.846554425219
aF2.5713656603241706
aF440.4283958334958
aF212.18743869263267
aF339.19426951867007
aF18.49824994530531
asS'Cerebrosideandsulfatidebiosynthesis'
p419
(lp420
F0.0
aF0.0
aF0.0
aF0.0
aF0.0
aF0.0
aF0.0
aF0.0
aF0.0
aF0.0
aF0.0
aF0.0
aF0.0
aF0.0
aF0.0
aF0.0
aF0.0
aF0.0
aF0.0
asS'Hemintransportsystem'
p421
(lp422
F0.888144556285544
aF1.6189717155823589
aF0.0
aF0.0
aF222.78618790706992
aF151.60857089529898
aF3.512002951460095e-05
aF0.0
aF73.0899826492163
aF0.0
aF0.0
aF195.49166259930564
aF0.0
aF245.47430597243257
aF0.0014890369264720362
aF0.0
aF0.0
aF3.207610485086744
aF0.0
asS'Methioninedegradation'
p423
(lp424
F4063.4870714541494
aF3567.825779783099
aF799.0531787364133
aF3231.39578909188
aF3108.163499407937
aF2085.647171677419
aF9213.66424939198
aF640.8485449103098
aF2805.027195253681
aF4803.51512695386
aF5062.49840838408
aF6679.789083347424
aF3649.6704057508414
aF8177.661343400338
aF3938.9978638923944
aF4843.847326038673
aF3842.823256063853
aF9095.38074317893
aF3296.2775464849415
asS'PTSsystem_N_acetylmuramicacid_specificIIcomponent'
p425
(lp426
F5.9986224945871705
aF38.83651054425092
aF587.3106388838114
aF466.78819463452396
aF0.19799447421137617
aF605.7827979690378
aF371.50431124300604
aF521.5852429992293
aF0.2543228327745688
aF0.6563049419504605
aF0.21459076685490316
aF258.4901385673988
aF29.327431432595407
aF9.997229417351072
aF28.912696361213982
aF7.45522369265306
aF267.75298165338097
aF0.2627102270959669
aF17.938347466659952
asS'CAM_Crassulaceanacidmetabolism__dark'
p427
(lp428
F5853.553330585015
aF3008.3574219761754
aF2748.243877938429
aF4495.301611795334
aF1690.0359776398202
aF3320.0254035747944
aF4897.848302360891
aF2075.7582045185327
aF2610.631707991222
aF3198.3777152864754
aF3590.7711363776443
aF4208.939759055921
aF1881.2145475703473
aF3846.441091886076
aF3108.5414156182005
aF941.8451225897545
aF1167.2668789594109
aF5391.216947229944
aF3265.052053561194
asS'Lipopolysaccharideexportsystem'
p429
(lp430
F18.241489541562952
aF1340.4799815467538
aF3218.6752966569793
aF553.4812496415855
aF901.4568043598288
aF1008.4223367688134
aF1979.972554143703
aF1916.5060621267376
aF5.744770897571935e-06
aF160.96669165641612
aF722.2756912410763
aF1448.5890937152801
aF955.8087276942908
aF373.44678522409055
aF904.5115308943389
aF790.1496398575854
aF1088.0086030691039
aF966.8981555646899
aF1488.3219311431883
asS'Putativespermidine_putrescinetransportsystem'
p431
(lp432
F1574.1580926559031
aF8412.657508926182
aF1548.6751907425337
aF1244.3729139904246
aF1345.793995330329
aF1082.1610731851715
aF917.0087544205008
aF4519.611547937451
aF1562.7894063191088
aF2204.6798232297783
aF3078.748766338029
aF1096.502360314776
aF667.8980386315262
aF4756.397847048135
aF1857.32005041626
aF1648.2857467842923
aF1304.979698630034
aF1356.3625913322546
aF2149.6504441244774
asS'Thiaminetransportsystem'
p433
(lp434
F358.9444910602429
aF0.010222709103357958
aF438.884304201346
aF248.8106547766172
aF38.10857267983854
aF461.6500767864126
aF562.728967310491
aF1129.0917439542218
aF0.103226048595444
aF49.74464868469662
aF1.5346385059616077
aF90.62928371112868
aF3.7573398542873084
aF54.81483797729892
aF164.42990778966396
aF35.34627815459794
aF20.907755689031028
aF3.0937052012054638
aF0.3262492899932936
asS'Putativesulfatetransportsystem'
p435
(lp436
F44.833515465040115
aF0.004013372800393405
aF24.035373799412103
aF0.4448483207153369
aF1.2717470527214219
aF281.2704951780255
aF0.0006975794341773083
aF117.81972567049637
aF4.919479309081241
aF241.39496413785957
aF0.012329677210790247
aF30.664533398592766
aF0.16963027587220078
aF0.0036931858494536523
aF1.0398640605506013
aF1.1593626104615118
aF277.6594729538585
aF0.007983312953662395
aF10.059706129227092
asS'alpha_Hemolysin_cyclolysintransportsystem'
p437
(lp438
F0.39642042134096306
aF0.9631593151720711
aF2.2829755515793946
aF5.968058494848819e-06
aF83.77495016208718
aF4.947575446951242e-09
aF0.17643186964964067
aF72.97434791507683
aF3.3781585878179614
aF24.108548048200024
aF17.129553548395577
aF7.54398351616035
aF45.320459700573515
aF2.2904995348831137e-05
aF322.31359882779583
aF0.0
aF2.939473763262475e-09
aF560.2848294911129
aF8.925863714549386
asS'Pectindegradation'
p439
(lp440
F878.4642569446722
aF2.3426655759493373
aF368.0409510286669
aF280.8780331446437
aF471.9353695172693
aF4.146899022946769
aF490.89156492492117
aF1290.5589906802838
aF1071.4965040345603
aF211.41285004068584
aF675.2075794289151
aF708.4492075003292
aF302.22673019695657
aF248.99988262869206
aF617.2951022247086
aF1885.711422075661
aF1319.1604893595363
aF855.867063188619
aF701.1479445173917
asS'Riboflavinbiosynthesis_GTP__riboflavin_FMN_FAD'
p441
(lp442
F7765.918977073266
aF4652.258772680337
aF14286.345167293473
aF4760.245177379827
aF8367.84203589112
aF8829.888891726889
aF7230.8404646400395
aF7045.180223563941
aF6907.690885121685
aF10682.501771641235
aF10996.795993341215
aF8897.637834320925
aF13417.996109917027
aF7038.706314459849
aF8826.279768177626
aF11283.42251030122
aF7720.823330032626
aF10056.516505886671
aF9958.437616216026
asS'Holo_TFIIHcomplex'
p443
(lp444
F0.0
aF0.0
aF0.0
aF0.0
aF0.0
aF0.0
aF0.0
aF0.0
aF0.0
aF0.0
aF0.0
aF0.0
aF0.0
aF0.0
aF0.0
aF0.0
aF0.0
aF0.0
aF0.0
asS'Sodiumtransportsystem'
p445
(lp446
F394.47458039930024
aF832.9110220831783
aF442.75567865646855
aF4735.701273059736
aF129.09207823892123
aF762.9909456150947
aF310.83178196618934
aF3736.9638442301184
aF1006.4666267524386
aF213.21538017096873
aF618.5863369701257
aF278.413353800471
aF443.5406057564091
aF8.620738544051111
aF470.08068036975277
aF681.8390290222653
aF412.7400641375477
aF784.7297775619395
aF466.93316529124775
asS'C21_Steroidhormonebiosynthesis_progesterone__cortisol_cortisone'
p447
(lp448
F0.0
aF0.0
aF0.0
aF0.0
aF0.0
aF0.0
aF0.0
aF0.0
aF0.0
aF0.0
aF0.0
aF0.0
aF0.0
aF0.0
aF0.0
aF0.0
aF0.0
aF0.0
aF0.0
asS'ComplexIV_Cytochromecoxidase__cytochromecoxidase'
p449
(lp450
F0.0
aF0.0
aF0.0
aF0.0
aF0.0
aF0.0
aF0.0
aF0.0
aF0.0
aF0.0
aF0.0
aF0.0
aF0.0
aF0.0
aF0.0
aF0.0
aF0.0
aF0.0
aF0.0
asS'f_2_oxoisovalerate_ferredoxinoxidoreductase'
p451
(lp452
F19.616717036202523
aF0.0
aF0.43372288359099687
aF0.03056832664321245
aF0.0
aF0.0005257627716286362
aF0.0
aF0.0
aF3.5839357891526937
aF0.12024617193205932
aF7.675390757266502
aF0.18690353151301003
aF100.32450957040518
aF0.005952897878896744
aF0.1078766325750214
aF0.6858186339499616
aF5.136458182485387
aF26.187431375965794
aF0.38433714609810793
asS'GeneralL_aminoacidtransportsystem'
p453
(lp454
F113.09953446562352
aF7.108252188036723e-08
aF287.79337134156856
aF41.85681952403845
aF16.81623277372318
aF708.6734788736865
aF788.4411122933759
aF932.843444970419
aF2.6798697858479845
aF153.8196754766379
aF103.00423888700644
aF131.13593893588134
aF257.9821634656519
aF119.96320071356048
aF6.0900649071708415
aF173.70692831882963
aF254.1445987104977
aF126.73407921904358
aF3.352392264954659
asS'Putativesugartransportsystem'
p455
(lp456
F10019.64050897975
aF10307.927353570045
aF5917.12535473587
aF10653.866722211224
aF9423.519830986139
aF9047.734912824106
aF10846.479428877232
aF8969.480815284429
aF10640.551109789278
aF14993.19572289348
aF13248.807506124149
aF8082.806051142308
aF7319.132685738477
aF13698.226244863763
aF11462.842220507642
aF9896.309659471432
aF9841.659653621764
aF9338.04540786701
aF12661.652974163066
asS'Glycosphingolipidbiosynthesis_ganglioseries_LacCer__GT3'
p457
(lp458
F0.0
aF0.0
aF0.0
aF0.0
aF0.0
aF0.0
aF0.0
aF0.0
aF0.0
aF0.0
aF0.0
aF0.0
aF0.0
aF0.0
aF0.0
aF0.0
aF0.0
aF0.0
aF0.0
asS'Tyrosinebiosynthesis_prephanate__pretyrosine__tyrosine'
p459
(lp460
F3.8494948917778338
aF0.4306501978587246
aF15.133740309188981
aF35.77806155971538
aF7.719048937228675
aF9.292015922894118
aF0.950224601387032
aF21.3223169506852
aF9.522854938244931
aF1.474960159224807
aF1.7407791854374277
aF118.17510891543769
aF2.0657492896456806
aF8.13730456966154
aF30.50957853946141
aF50.19854542451926
aF28.559673288107483
aF71.84853733921186
aF22.603777712753434
asS'Leucinebiosynthesis_pyruvate__2_oxoisovalerate__leucine'
p461
(lp462
F0.0
aF4958.876900580061
aF0.0
aF0.0
aF0.0
aF0.0
aF0.0
aF0.0
aF0.0
aF0.0
aF21.76700436808864
aF0.0
aF0.0
aF0.0
aF0.0
aF0.0
aF0.0
aF0.0
aF0.0
asS'Ascorbatebiosynthesis_animals_glucose_1P__ascorbate'
p463
(lp464
F0.0
aF0.0
aF0.0
aF58.937105599236176
aF120.88464921415384
aF134.44623171632108
aF0.0
aF0.13396886119689416
aF0.0
aF0.0
aF0.0011146499284873795
aF0.0
aF3.561379395044462e-05
aF7.247523615575892e-06
aF0.0
aF6.654141959346369e-07
aF0.0
aF0.0
aF0.0
asS'Melatoninbiosynthesis_tryptophan__serotonin__melatonin'
p465
(lp466
F0.0
aF0.0
aF0.0
aF0.0
aF0.0
aF0.0
aF0.0
aF0.0
aF4.0957858527424165e-06
aF0.0
aF0.0
aF0.0
aF0.0
aF0.0
aF0.0
aF0.0
aF0.0
aF0.0
aF0.0
asS'Glutamate_aspartatetransportsystem'
p467
(lp468
F101.618836410964
aF3.9742003980910834
aF2.854488152691766
aF4.122974235897177
aF177.52586789289424
aF1061.0600636291301
aF314.0124785215985
aF818.5215683657573
aF253.97800365312867
aF0.554258157573059
aF70.3569310314891
aF88.35059390839838
aF181.500060057896
aF0.2674267656579525
aF100.90297850967758
aF95.66434152858676
aF39.56182649123198
aF218.76414850372726
aF65.6165738220229
asS'Histidinetransportsystem'
p469
(lp470
F29.83829794107881
aF945.557858953522
aF21.400815527810973
aF0.9331317595954838
aF15.460072924638096
aF7.887677524716847
aF0.45461846374655895
aF756.6843437683793
aF1.799865568835125
aF5.00717758273969
aF2.270634538823187
aF15.041823176508272
aF2.4835055916319533
aF13.268417067874852
aF8.357096420156521
aF3.3449116500468894
aF3.510850319371674
aF18.68716810237274
aF15.408144404896033
asS'Glutaminetransportsystem'
p471
(lp472
F1881.312627993406
aF673.442274364464
aF1206.7460397025054
aF1133.1240202647934
aF1122.4762003782178
aF1320.5086609961022
aF217.99835334606078
aF445.552868322304
aF487.5220610642547
aF1134.0123742916444
aF1005.6003443578019
aF1622.2121205809474
aF1034.1865793894542
aF578.5822562517652
aF1036.1462404460735
aF599.0752151280086
aF1049.9366370648154
aF1599.84160349009
aF1166.0291617837229
asS'ComplexI_NADHdehydrogenase__NADHdehydrogenase_ubiquinone_1alphasubcomplex'
p473
(lp474
F0.0
aF0.0
aF0.0
aF0.0
aF0.0
aF0.0
aF0.0
aF0.0
aF0.0
aF0.0
aF0.0
aF0.0
aF0.0
aF0.0
aF0.0
aF0.0
aF0.0
aF0.0
aF0.0
asS'ComplexI_NADHdehydrogenase__NADHdehydrogenase_ubiquinone_1betasubcomplex'
p475
(lp476
F0.0
aF0.0
aF0.0
aF0.0
aF0.0
aF0.0
aF0.0
aF0.0
aF0.0
aF0.0
aF0.0
aF0.0
aF0.0
aF0.0
aF0.0
aF0.0
aF0.0
aF0.0
aF0.0
asS'Adeninenucleotidebiosynthesis_IMP__ADP_dADP_ATP_dATP'
p477
(lp478
F11105.059154102486
aF14693.288130604586
aF13286.014561667307
aF7523.440718532762
aF4995.878997208259
aF10137.89460769625
aF11979.044150868423
aF10637.964198477344
aF9562.736119657187
aF3600.0808195255445
aF6921.622918911818
aF7152.784309123335
aF6540.634763086862
aF12436.05669961736
aF8791.127751667178
aF8382.881427276861
aF10837.932215222512
aF8909.634309402929
aF5201.865697041507
asS'PTSsystem_D_glucosamine_specificIIcomponent'
p479
(lp480
F4708.95398432414
aF1433.6032973063566
aF5171.3730146485905
aF4494.363755543327
aF5287.932508375517
aF5914.176876794161
aF2295.465021978036
aF9437.831366374388
aF4583.096522053006
aF9139.082352730657
aF2782.7363634165367
aF1972.1746723187587
aF5981.650412996051
aF6093.13073331843
aF5220.88852884797
aF5231.13694976435
aF3885.3216034967727
aF2222.869307244048
aF7611.118229327574
asS'Thyroidhormonebiosynthesis_tyrosine__triiodothyronine_thyroxine'
p481
(lp482
F52.59701172124869
aF0.0
aF0.0
aF0.006252321880750723
aF0.0
aF1.485410351340339e-11
aF0.0
aF13.694446636374474
aF79.6645031200469
aF0.0
aF0.0
aF0.0
aF26.858898826696276
aF0.0
aF66.64966807952942
aF0.0
aF0.00012814899736509472
aF0.0
aF0.0
asS'DNApolymerasealpha_primasecomplex'
p483
(lp484
F150.14651767858498
aF0.0
aF0.00033408004262298695
aF0.024474353441115284
aF0.0
aF339.1694567442326
aF0.0
aF0.0
aF87.13820782376641
aF21.66389204611216
aF0.0
aF244.91695987385776
aF0.0
aF0.0
aF190.42403677111935
aF88.25251140886475
aF0.0
aF1.6544159647034082e-08
aF0.0
asS'Reductivepentosephosphatecycle_Calvincycle_'
p485
(lp486
F0.0048456217584107964
aF0.0
aF4.146276971458452e-06
aF0.0
aF0.0
aF1.583197644395812e-06
aF0.0
aF32.315379049420024
aF0.0
aF0.0
aF0.0
aF0.0
aF0.0
aF0.0
aF0.0
aF0.0
aF0.0
aF0.0
aF0.0
asS'C10_C20isoprenoidbiosynthesis_plants'
p487
(lp488
F0.08685515270008122
aF1.0827989813785363e-08
aF63.09171269022308
aF9.262751799766969e-08
aF2.847273473919025e-05
aF1.1744914774251337e-09
aF6.2909914234139325e-12
aF0.0670688099622334
aF0.0025499276553771102
aF0.012145442877325878
aF0.0
aF0.16492275843007667
aF0.000714265844023047
aF2.296257708139178e-07
aF0.7983544420839677
aF6.612703955526014
aF1.1082333641140878
aF8.333038661423252
aF0.003204862634040175
asS'Pyridoxalbiosynthesis_erythrose_4P__pyridoxal_5P'
p489
(lp490
F23.866811187112344
aF13.766124613557494
aF1383.2144532969176
aF98.32655523266713
aF3.7042124757658517e-09
aF0.07444771931875656
aF29.39019260913054
aF1098.2251508052557
aF25.960415906210468
aF0.11831779330657723
aF60.03329955559148
aF0.8813564835075608
aF72.61816546852546
aF51.809256662333986
aF6.904440039353699
aF0.0
aF64.34973233778766
aF20.59309835642062
aF162.4589000048961
asS'Lysine_arginine_ornithinetransportsystem'
p491
(lp492
F159.41756166961588
aF962.7697075582694
aF45.67601637344007
aF0.7683090210283074
aF11.46962213041517
aF69.29213631498402
aF31.979129402978664
aF19.320996926297934
aF2.0596611545614096
aF5.05340079427162
aF2.2012708726624073
aF15.863821482942885
aF1.386827867672649
aF21.021404743103172
aF7.832023596916036
aF5.029729547681491
aF4.818670798716406
aF15.489393371704727
aF18.039807098757272
asS'Thiaminebiosynthesis_AIR__thiamine_P_thiamine_2P'
p493
(lp494
F7745.591648459007
aF3468.059714218955
aF10524.270452720577
aF5350.672939518964
aF5616.018162789209
aF4757.735298761671
aF11319.912550068015
aF10235.473170405998
aF6503.682132516459
aF294.57879687359855
aF12748.071550158458
aF9641.558386814839
aF14196.024958520546
aF5993.93719196822
aF5038.50900359073
aF1362.8681249267595
aF8164.682339171889
aF11365.207188341601
aF7618.990251256206
asS'Jasmonicacidbiosynthesis'
p495
(lp496
F0.0
aF0.0
aF0.0
aF0.0
aF0.0
aF0.0
aF0.0
aF0.0
aF0.0
aF0.0
aF0.0
aF0.0
aF0.0
aF0.0
aF8.337589118346746e-08
aF0.0
aF0.0
aF0.0
aF0.0
asS'Glycosaminoglycanbiosynthesis_chondroitinsulfatebackbone'
p497
(lp498
F0.0
aF0.0
aF0.0
aF0.0
aF0.0
aF0.0
aF0.0
aF125.82875378390665
aF0.0
aF0.0
aF0.0
aF0.0
aF0.0
aF0.0
aF0.0
aF82.96262894271463
aF0.0
aF0.0
aF105.53337485686019
asS'Guaninenucleotidebiosynthesis_IMP__GDP_dGDP_GTP_dGTP'
p499
(lp500
F11160.746696386612
aF14768.866812034807
aF14606.51013116549
aF7637.248625226055
aF4981.7972967587975
aF11383.755373819436
aF13101.799520785236
aF11858.144905280124
aF9172.083350967874
aF3614.0600975709895
aF6811.324209622198
aF7039.814104912123
aF6575.13346187504
aF12137.037850072027
aF8744.732563830168
aF8287.227600299888
aF10571.035347743747
aF9064.19841628848
aF5226.945642503177
asS'Manganese_irontransportsystem'
p501
(lp502
F0.4624923842596598
aF63.131574139189375
aF0.23740628259300273
aF0.03155712641408903
aF0.4993086437090132
aF0.007905089720924808
aF0.1231436233973342
aF0.0010210374623819704
aF0.00017924936438357334
aF0.26563393241655153
aF0.339660438145089
aF19.288301585924664
aF1.4425718152978557
aF0.010923088338235255
aF63.861214900552525
aF5.612642288854187
aF11.675877347109235
aF0.30633273002699285
aF0.36348980158446326
asS'DNApolymerasegammacomplex'
p503
(lp504
F140.11192404031067
aF1.2409126132495918e-11
aF4.5504262483674094e-10
aF1.3905266489822507e-06
aF0.0
aF5.695748136507754e-12
aF1.428293857019498e-09
aF1.777116118531859e-08
aF0.0
aF0.0
aF8.477662890306896e-09
aF2.2099848787824795e-05
aF1.0203209758330046e-05
aF1.298813682948322e-05
aF0.000408050671214463
aF5.474087191838961e-09
aF3.3752836146956754e-08
aF8.12111596442206e-09
aF88.6035442700578
asS'Ethylenebiosynthesis_methionine__ethylene'
p505
(lp506
F0.0
aF4.876546617525637e-08
aF0.0
aF0.0
aF0.0018736848627809487
aF0.0
aF0.0
aF0.0
aF0.151394931868807
aF0.0
aF0.0
aF0.0
aF0.0
aF0.0
aF0.0
aF0.0037153724412302565
aF0.0
aF0.0
aF0.0
asS'Bileacidbiosynthesis_cholesterol__cholate'
p507
(lp508
F0.0
aF0.0
aF0.0
aF0.0
aF0.0
aF0.0
aF0.0
aF0.0
aF0.0
aF0.0
aF0.0
aF0.0
aF0.0
aF0.0
aF0.0
aF0.0
aF0.0
aF0.0
aF0.0
asS'Aminoacyl_tRNAbiosynthesis_prokaryotes'
p509
(lp510
F19953.90267193895
aF15696.820360030186
aF19002.36857687822
aF17281.764431579653
aF21426.33769238609
aF19775.54150140364
aF18841.037247943936
aF13869.408753303429
aF19107.51726556137
aF19233.32184876602
aF21982.791200907126
aF22428.3785783286
aF21650.580521379845
aF19132.437423694333
aF20059.237469918055
aF20902.684736437917
aF25138.5386936962
aF21801.218575391187
aF20882.02351842023
asS'N_glycanprecursortrimming'
p511
(lp512
F106.08803103853081
aF3.84450461705018e-07
aF112.82059387799546
aF0.0
aF3.6731811218440264e-07
aF0.015665552464861766
aF101.05859041115937
aF18.676635356882883
aF122.51964289727596
aF0.0
aF6.697068234630525
aF48.9656868817374
aF12.674687317308283
aF0.0
aF0.0
aF87.34075082787778
aF0.0
aF15.867391689198408
aF51.90143643578054
asS'DNApolymerasezetacomplex'
p513
(lp514
F93.8140459512262
aF0.0
aF0.0
aF0.0
aF0.0
aF0.0
aF0.0
aF0.0
aF0.0
aF0.0
aF303.3399905339481
aF148.8375368370642
aF0.0
aF0.0
aF0.0
aF0.0
aF0.0
aF0.0
aF0.0
asS'Argininetransportsystem'
p515
(lp516
F36.67804119966376
aF0.7248374972421062
aF625.9409552895285
aF6.9333766536722745
aF26.79198846158645
aF5.121164606231324
aF0.7725091988303204
aF696.3369638783674
aF32.42779148699943
aF0.6499810104512793
aF0.7407084294956496
aF133.30634222633006
aF26.182216915740025
aF4.660572856285766
aF4.5811504387721715
aF6.845431254387895
aF44.49321606670816
aF3.282917928149275
aF15.70060216180853
asS'PTSsystem_cellobiose_specificIIcomponent'
p517
(lp518
F4085.429909667356
aF14314.559201113749
aF5100.7301428532655
aF10340.069788595194
aF2633.9572301312473
aF9196.35826747689
aF4043.164628131053
aF7941.9656302279345
aF2675.682580064526
aF4962.382940238547
aF1837.8392851518718
aF3746.000166875435
aF4864.83797896852
aF2578.9180454980383
aF2629.866984595555
aF815.4819958517456
aF1679.1002779205114
aF3645.8719657760444
aF4913.574640188518
asS'Citratecycle_TCAcycle_Krebscycle_'
p519
(lp520
F9.419644029333695e-05
aF2354.6208219582622
aF6786.167245085496
aF1.7637788582415945e-09
aF3320.0374700222565
aF2551.1936649899426
aF0.0
aF2931.008158503856
aF3139.55687711033
aF3.5034523985699297
aF2980.599137391631
aF514.9458623183948
aF52.939136834815265
aF171.26467194332096
aF1553.9046291918773
aF213.0726826655149
aF2534.3224963381936
aF5226.132124840544
aF37.638233177183515
asS'L_Arabinosetransportsystem'
p521
(lp522
F0.0
aF363.8248709300826
aF0.0012076570325227198
aF236.19109167892464
aF18.360473347903653
aF0.0
aF6.95812939672765
aF1373.1732015547464
aF0.0
aF0.007995909988359607
aF1.7586537355801515e-05
aF8.145313888117113e-06
aF0.0
aF0.0
aF558.7443367196598
aF0.0
aF0.0
aF0.0
aF8.834887537013842
asS'Uronicacidmetabolism'
p523
(lp524
F2825.4526866045157
aF3863.8596482661305
aF6700.70092025525
aF4361.816457775285
aF3983.0350880170017
aF3740.647171817963
aF6698.882252278346
aF10505.236661643134
aF7047.0927263430485
aF4562.695814701485
aF4331.456752093528
aF6047.652151818404
aF7167.998368979322
aF1877.7646511128903
aF4596.639492950592
aF8630.277616972262
aF6083.231056834747
aF3727.192152247263
aF4679.259925769689
asS'Inositolphosphatemetabolism_Ins_1_3_4_5_P4__Ins_1_3_4_P3__myo_inositol'
p525
(lp526
F0.0
aF0.0
aF5.771369084170291e-12
aF0.0
aF55.791334046883634
aF0.0
aF0.0
aF0.0
aF0.0
aF0.0
aF5.2567216968543446e-05
aF0.0
aF0.0
aF0.01806421968083948
aF0.0
aF0.0
aF8.168188227410107e-05
aF0.0
aF0.0
asS'Peptides_nickeltransportsystem'
p527
(lp528
F14345.378861987954
aF14614.433158037416
aF10019.699257722128
aF16878.045433794585
aF10862.024997635264
aF14622.315112699951
aF18223.893495215358
aF13473.60304302194
aF17035.909225202126
aF20314.012764010306
aF14791.657394213831
aF16849.315606719843
aF12867.45329347672
aF15828.9365473989
aF14468.952529035945
aF16758.587761642102
aF13467.074885370968
aF14450.560660714165
aF14103.32875846391
asS'PTSsystem_arbutin__cellobiose__andsalicin_specificIIcomponent'
p529
(lp530
F787.91663312449
aF112.52696247603177
aF607.060424406084
aF191.54835622041858
aF385.15573356634667
aF89.98477673057366
aF212.08462318289313
aF96.58409141838914
aF112.95712074302482
aF281.7026094059545
aF126.54963180142879
aF167.67022708117148
aF156.2439450926054
aF1214.9669631412291
aF768.3815102814328
aF1204.3756959741697
aF344.2207101724166
aF103.67930314180708
aF789.7201520466504
asS'GPI_anchorbiosynthesis_coreoligosaccharide'
p531
(lp532
F0.0
aF0.0
aF0.0
aF0.0
aF0.0
aF0.0
aF0.0
aF0.0
aF0.0
aF35.98300695427792
aF0.0
aF0.0
aF0.0
aF0.0
aF0.0
aF0.0
aF0.0
aF0.0
aF0.0
asS'PTSsystem_glucose_specificIIcomponent'
p533
(lp534
F3080.7182684901886
aF16814.28126427195
aF4581.810254373771
aF1282.5008906919002
aF662.241657311437
aF1715.7762819196848
aF2046.2040725159065
aF3616.9498531719623
aF684.0513288225643
aF1494.7648034932436
aF1136.3930606678773
aF2504.5124501481173
aF738.0786383959927
aF1383.6763165873022
aF1935.9171841378618
aF1590.0375393372597
aF1646.5324788401492
aF379.26422640644137
aF2839.5966528172685
asS'Catecholaminebiosynthesis_tyrosine__dopamine__noradrenaline__adrenaline'
p535
(lp536
F0.0
aF0.0
aF0.0
aF0.0
aF0.0
aF0.0
aF6.390358802104791e-09
aF0.0
aF0.0
aF0.0
aF0.0
aF0.0
aF0.0
aF0.0
aF0.0
aF0.0
aF0.0
aF0.0
aF0.0
asS'Bicarbonatetransportsystem'
p537
(lp538
F0.9173693062419447
aF0.0
aF0.004357244668346582
aF0.0
aF0.0
aF0.0
aF0.0
aF0.0
aF0.0
aF0.0
aF0.0
aF9.821634676844864e-06
aF0.0
aF0.0
aF0.0
aF0.0
aF0.0
aF1.8156581594659724e-05
aF0.001076208789943363
asS'Ribosome_bacteria'
p539
(lp540
F24353.660288394614
aF18715.781650742083
aF22417.18225286023
aF20769.437626891166
aF27020.363858862926
aF23067.908788926426
aF21317.47417727725
aF14476.275235820365
aF21736.358944542935
aF23265.954120461796
aF24403.40993057054
aF25784.800501047648
aF21933.388491192367
aF20206.267885912937
aF22544.417366660815
aF22612.8744834815
aF29435.370111024302
aF24623.62595018415
aF24243.908635327236
asS'Oligosaccharyltransferase'
p541
(lp542
F0.0
aF0.0
aF0.0
aF0.0
aF0.0
aF0.0
aF0.0
aF0.0
aF0.0
aF0.0
aF0.0
aF0.0
aF0.0
aF0.0
aF0.0
aF0.0
aF0.0
aF0.0
aF0.0
asS'Tocopherolbiosynthesis'
p543
(lp544
F0.0
aF0.0
aF0.46227510539398897
aF0.0
aF0.0
aF0.0
aF0.0
aF0.0
aF0.0
aF0.0
aF0.0
aF0.0
aF0.0
aF0.0
aF0.0
aF0.0
aF0.0
aF0.0
aF0.0
asS'Glutathionetransportsystem'
p545
(lp546
F833.8025509317267
aF4.869180860055534
aF532.9215228583438
aF1795.2833636912428
aF790.573945141994
aF1480.587317712371
aF748.7584982792534
aF1188.8975491284148
aF770.1051797459994
aF2043.280112094097
aF582.8008910532087
aF456.6138215548537
aF552.1241778393266
aF508.14067532345564
aF571.4324172578787
aF1403.8432730765953
aF368.81371492010646
aF233.0361466864391
aF701.7538427926428
asS'Archaealproteasome'
p547
(lp548
F30.139318145565007
aF0.0
aF0.0
aF0.0
aF0.0
aF0.0
aF0.0
aF0.021111978303943048
aF2.468701775772661e-10
aF71.53188125591444
aF11.704655226146906
aF0.0
aF1213.3087785511148
aF0.020094861767211283
aF18.186165100816268
aF424.73519439883324
aF0.0
aF626.8308932678929
aF0.0
asS'Putativeglutaminetransportsystem'
p549
(lp550
F6670.828852201799
aF4034.7176947752228
aF2448.5870576441193
aF3367.2184828689683
aF3564.107762813637
aF6460.349914625624
aF3311.2982384942297
aF3593.872051021635
aF3280.1153784200105
aF6486.333522710864
aF5600.88222121307
aF6089.586359575117
aF2440.421174623265
aF4558.927447109148
aF4295.263072725241
aF5096.504769306347
aF3797.2097258295253
aF4457.415525540251
aF4932.453234008499
asS'Reductivepentosephosphatecycle_RuBP_CO2__glyceraldehyde_3P'
p551
(lp552
F914.61008571971
aF0.0
aF3.7538344923593746e-07
aF0.0
aF0.0
aF130.7809953904629
aF0.0
aF6.813029643554202
aF0.0
aF0.0
aF0.0
aF0.0
aF0.0
aF198.40213070379835
aF0.0
aF0.0
aF0.0
aF0.0
aF0.0
asS'Spliceosome_U2_snRNP'
p553
(lp554
F0.0
aF0.0
aF0.0
aF0.0
aF0.0
aF0.0
aF0.0
aF0.0
aF0.0
aF0.0
aF0.0
aF0.0
aF0.0
aF0.0
aF0.0
aF0.0
aF0.0
aF0.0
aF0.0
asS'Putativemultiplesugartransportsystem'
p555
(lp556
F1247.2586214217797
aF243.21448461658534
aF1316.408034932411
aF4898.418955994621
aF3928.413773152228
aF3640.5368236575896
aF481.4664821587569
aF3688.343088803824
aF2465.6134824537917
aF6782.085980900932
aF2589.5559570275173
aF1806.7750751408353
aF2003.9462159351308
aF5010.850239271005
aF5354.645280043444
aF4142.490750274445
aF2769.822837248971
aF1532.110296112762
aF3008.9647027038723
asS'GABAbiosynthesis_eukaryotes_putrescine__GABA'
p557
(lp558
F75.14087863000341
aF392.52773251651263
aF1533.837075142582
aF102.10691328819833
aF289.25402926614385
aF914.5364555474982
aF121.46890759085493
aF284.7416305899544
aF1553.06482921992
aF296.68365185491774
aF436.24829369934236
aF1396.3486562290932
aF430.98942632741677
aF1591.8983299566069
aF179.9175111891179
aF2211.4694323213
aF736.6887330126874
aF128.64633159747305
aF1030.938680765924
asS'Phosphatidylethanolamine_PE_biosynthesis_ethanolamine__PE'
p559
(lp560
F2.7181050806146945
aF0.0
aF0.0
aF0.0
aF205.15262667803304
aF1.3691139863091014e-08
aF69.32519631130849
aF0.20122797447649332
aF41.62377326167317
aF57.01955690412989
aF0.00034270830152418767
aF71.36452765092952
aF0.22207425535622013
aF0.7976146915704981
aF129.43028579564927
aF7.099042133411207e-05
aF3.395913127994471
aF263.8991522097884
aF436.65609280564433
asS'Lysinebiosynthesis_aspartate__lysine'
p561
(lp562
F11824.559386000556
aF6909.915042886367
aF3704.9424303533237
aF14328.469472658533
aF15467.44553314035
aF9105.141870318874
aF10663.084180914038
aF10373.665576276233
aF14902.606823372147
aF11171.07598108687
aF13097.18529393509
aF14212.344125773427
aF12547.843625563954
aF14821.277879188092
aF13900.313801310705
aF11053.148745317478
aF10247.19644718694
aF13165.198983676712
aF12375.267117597936
asS'RNApolymerase_archaea'
p563
(lp564
F0.0
aF0.0
aF0.0
aF0.0
aF0.0
aF0.0
aF0.0
aF0.0
aF0.0
aF0.0
aF0.0
aF0.0
aF0.0
aF0.0
aF0.0
aF0.0
aF0.0
aF0.0
aF0.0
asS'Glucuronatepathway_uronatepathway_'
p565
(lp566
F0.3847785160596482
aF0.0
aF27.888176517924048
aF177.54986602498263
aF84.26656117908328
aF0.014503524503913233
aF95.05830841254897
aF722.0077520919691
aF244.27493688561447
aF12.908461538557443
aF131.53548969235865
aF0.0005865588765789978
aF4.845598837052079
aF2.2859322844285526
aF209.19294363642567
aF60.67703325083557
aF0.007191910329809671
aF3.4942813942495032
aF158.3037792682067
asS'beta_Oxidation_acyl_CoAsynthesis'
p567
(lp568
F8969.48552321134
aF5424.693610029906
aF11825.512380353777
aF15383.733964703553
aF10361.082804789976
aF4342.846420056961
aF8800.432067857653
aF3724.9395014345046
aF14633.25464264485
aF11069.09449282339
aF11537.87468021892
aF10720.649419988893
aF9689.458094805233
aF14297.834974977231
aF14291.124380020836
aF8105.927770206997
aF10655.324036802287
aF13623.607388790842
aF8433.91070314512
asS'PTSsystem_lactose_specificIIcomponent'
p569
(lp570
F3006.7061907686752
aF6359.33754389818
aF42.435959502497134
aF559.5439138020904
aF2806.4085333677895
aF8489.553825536055
aF4726.213693272218
aF1265.7337032567184
aF4282.089365749809
aF2604.4934917695937
aF461.5698122495724
aF70.43380672536006
aF4029.232015997633
aF766.8867725742664
aF1028.7395800278232
aF702.9959338568515
aF1179.1235820485476
aF1311.3898046472311
aF5053.059614942967
asS'PTSsystem_mannitol_specificIIcomponent'
p571
(lp572
F1068.4546251195113
aF14907.619854231063
aF1478.2013791131637
aF1012.2623379018036
aF1143.0974123330268
aF767.4687591256013
aF2479.3986789424343
aF5575.2143071239225
aF2034.464287423336
aF2716.316532054535
aF1938.35052614019
aF523.5920251328558
aF1790.3835580460682
aF3486.8016664769375
aF2899.1870991980722
aF2537.875437980184
aF353.8268059261851
aF669.238529872139
aF1095.553426349042
asS'Cobalttransportsystem'
p573
(lp574
F76.27190697227864
aF0.0
aF1430.1572131922578
aF6258.262769919322
aF0.0
aF2228.969409595405
aF3094.298571593245
aF5915.010601630001
aF4235.676814120635
aF5.462604196212052
aF4292.332774475791
aF0.0
aF8065.7167414667365
aF2752.0547308975592
aF0.0
aF0.0
aF0.6530196804859016
aF5429.866327748686
aF2716.9332265023213
asS'Shikimatepathway_phosphoenolpyruvate_erythrose_4P__chorismate'
p575
(lp576
F13633.361896590504
aF10646.023292916823
aF12853.299431627604
aF13680.161506851013
aF15347.042650677547
aF15189.647217188585
aF15736.363262056111
aF11972.326102820496
aF13378.380688602385
aF14024.747818787057
aF14499.179955555337
aF14478.372261765442
aF16068.242437183424
aF13037.993109829176
aF13953.6250060727
aF15793.223003783793
aF14330.979039734773
aF12163.003519830638
aF16239.427982462
asS'Oligogalacturonidetransportsystem'
p577
(lp578
F105.32854842318814
aF231.3014009264272
aF622.550448649756
aF78.67048413076343
aF40.094106956083436
aF2.2022379989089162
aF31.33733725585334
aF170.53484729212545
aF102.9865288399301
aF130.3862530339387
aF23.621311690543724
aF211.39600536807183
aF98.61678350604241
aF54.1768325865095
aF165.81340788745064
aF96.88484794411737
aF63.302400425357334
aF65.36572717710243
aF52.555194622385656
asS'ComplexIV_Cytochromecoxidase__cytochromeoubiquinoloxidase_cytochromecoxidase_quinoloxidasepolypeptide'
p579
(lp580
F0.0
aF0.0
aF0.0
aF0.0
aF0.0
aF0.0
aF0.0
aF0.0
aF0.0
aF0.0
aF0.0
aF0.0
aF0.0
aF0.0
aF0.0
aF0.0
aF0.0
aF0.0
aF0.0
asS'GABAbiosynthesis_prokaryotes_putrescine__GABA'
p581
(lp582
F0.430134475396204
aF224.35162638517286
aF0.0
aF0.07848596832157215
aF0.00183506240090772
aF0.006365160743845605
aF667.3779768339269
aF0.05955461662517235
aF0.020868284263568546
aF0.005750720077181322
aF0.011400514367606524
aF1.6072374690481063e-05
aF0.09176118857989778
aF9.903214866501714e-07
aF0.0038699020196595636
aF0.04488765202027867
aF59.678809832618704
aF0.1267525173346258
aF2.059197078914867e-09
asS'Cobalaminbiosynthesis_cobinamide__cobalamin'
p583
(lp584
F0.0
aF0.0
aF3001.2901371551957
aF1888.1484929394824
aF3179.795135895143
aF424.11189864015284
aF0.0
aF3904.016470548415
aF2096.53295513915
aF3355.8557040096052
aF0.0
aF1807.327280047856
aF0.0
aF285.74300239336867
aF435.7543514364219
aF0.0
aF0.0
aF994.874445687717
aF3817.6426128369985
asS'Spliceosome_U4_U6_U5tri_snRNP'
p585
(lp586
F0.0
aF0.0
aF0.0
aF0.0
aF0.0
aF0.0
aF0.0
aF0.0
aF0.0
aF0.0
aF0.0
aF0.0
aF0.0
aF0.0
aF0.0
aF0.0
aF0.0
aF0.0
aF0.0
asS'Lactosylceramidebiosynthesis'
p587
(lp588
F0.0
aF0.0
aF21.132404519775164
aF0.0
aF0.0
aF0.0
aF0.0
aF0.0
aF0.0
aF0.0
aF0.0
aF5.310741458144564e-08
aF0.0
aF0.0
aF0.0
aF0.0
aF0.0
aF1.9088013441319177e-08
aF0.0
asS'Phosphonatetransportsystem'
p589
(lp590
F2588.0702167082673
aF3561.364567971392
aF2819.994794934732
aF1110.7573909094183
aF1690.6601103880223
aF3014.6661638630935
aF1328.5416373398482
aF2606.9551482632255
aF1318.3687447107632
aF1850.8272606260675
aF1697.0986900014516
aF1851.3142358394086
aF2636.7113357261205
aF750.623789205721
aF1534.1581956934097
aF1599.24625072609
aF2965.1334269033796
aF3140.540869426824
aF459.42878509916517
asS'Cysteinebiosynthesis_serine__cysteine'
p591
(lp592
F15510.221605387076
aF14977.706107899256
aF14207.224242211487
aF8463.731128235544
aF15462.538583803289
aF16373.15227309703
aF13253.583657392901
aF10620.27339833611
aF11873.270118104821
aF12378.889421334547
aF10841.616850994646
aF13264.071209733387
aF16929.186762197747
aF12484.456860933175
aF13808.268456164522
aF13176.5572921882
aF17121.120415374462
aF12941.995773113355
aF13669.961213402297
asS'Ornithinebiosynthesis_glutamate__ornithine'
p593
(lp594
F5070.787835145161
aF4931.790190776138
aF4942.056195469122
aF7063.886224850427
aF12256.903198592463
aF5013.025666810832
aF7793.153735178984
aF7697.731985511549
aF4639.473444203407
aF6999.074301303587
aF6993.362682520193
aF2470.729071415455
aF3216.1451584942984
aF3029.989510018958
aF2355.6880608223355
aF5983.6164399424715
aF7717.824462735111
aF6093.5170237988605
aF4838.181664005844
asS'beta_Alaninebiosynthesis_cytosine_uracil__beta_alanine'
p595
(lp596
F150.1062850940535
aF5.910715201334679
aF69.21787752447531
aF275.73879111872736
aF273.68048124759326
aF4.037222253897665
aF407.1372107893885
aF413.7221142536584
aF80.7059249081263
aF44.06993087351484
aF160.21229517231018
aF215.47763688054846
aF329.5391016318838
aF191.56387702137252
aF253.29117737867972
aF174.00002699357853
aF114.61764108549296
aF137.91537935702362
aF148.95834176389897
asS'PTSsystem_N_acetylgalactosamine_specificIIcomponent'
p597
(lp598
F2280.0277130661684
aF6665.358266130401
aF6123.504747803949
aF5346.978466294397
aF1620.9381820249337
aF5700.862575687476
aF1502.8293145750765
aF6093.781216077923
aF134.77551473071705
aF2.9926728708094763
aF158.9956998051713
aF1146.839716137304
aF4565.269421158081
aF179.38928849458227
aF1121.9906088755613
aF0.1485841769562592
aF32.91384193864723
aF4.690489397698923
aF2300.9022305271824
asS'S_Layerproteintransportsystem'
p599
(lp600
F0.0
aF0.0
aF0.0
aF0.0
aF0.0
aF0.0
aF0.0
aF0.0
aF0.0
aF0.0
aF0.0
aF0.0
aF0.0
aF0.0
aF0.0
aF0.0
aF0.0
aF0.0
aF0.0
asS'Phosphatidylcholine_PC_biosynthesis_choline__PC'
p601
(lp602
F0.0
aF0.0
aF0.0
aF0.0
aF0.0
aF0.0
aF0.0
aF0.0
aF0.0
aF0.0
aF0.0
aF0.0
aF0.0
aF0.0
aF3.173921013873395e-10
aF269.3745333019748
aF0.0
aF0.0
aF0.0
asS'Putativephosphonatetransportsystem'
p603
(lp604
F554.327412874658
aF684.1192631060536
aF667.0550096228278
aF756.161768892017
aF27.011609514336122
aF1919.2567030354464
aF78.384218941367
aF111.39252480024528
aF15.210703245913203
aF1224.4278934311249
aF115.33525526681902
aF319.5712951324221
aF130.5758155083733
aF18.32408246453158
aF166.55854951940222
aF144.6366436994598
aF214.2194291163702
aF185.16210829060375
aF15.889069656463592
asS'D_Allosetransportsystem'
p605
(lp606
F0.577931763825212
aF0.013212702238895287
aF150.8927276037596
aF9.234286048295091
aF2252.922608255301
aF9.898365643817023
aF230.47059983076358
aF562.6104647858613
aF49.65060608818796
aF0.0595017282432636
aF0.9930904228191472
aF292.33238322329487
aF146.9983133984004
aF0.0
aF11.00870914689587
aF127.28122787861807
aF1507.0511300604771
aF89.74985708852392
aF0.4022084378001712
asS'Pentosephosphatepathway_non_oxidativephase_fructose6P__ribose5P'
p607
(lp608
F16738.67884107318
aF8181.0563910053825
aF17112.567496688363
aF19471.984363202475
aF12998.315679546515
aF23003.18199499772
aF13522.779816909462
aF19468.96372144276
aF20879.97135634003
aF17512.322371027687
aF19015.41557681405
aF19140.80623882723
aF16403.257211237655
aF20504.585340926227
aF17194.303017627848
aF18193.16466543449
aF23056.43645956957
aF15014.514875848468
aF17340.226214849183
asS'Cholesterolbiosynthesis_FPP__cholesterol'
p609
(lp610
F0.0
aF0.0
aF0.0
aF0.0
aF0.0
aF0.0
aF0.0
aF0.0
aF0.0
aF0.0
aF0.0
aF0.0
aF0.0
aF0.0
aF0.0
aF0.0
aF0.0
aF0.0
aF0.0
asS'Simplesugartransportsystem'
p611
(lp612
F5028.12511744611
aF9878.860476694814
aF6035.710882484299
aF7364.076648922343
aF10355.219604690645
aF10969.563692028467
aF4552.066862637184
aF11747.093230006352
aF7679.146020950436
aF8991.958646204606
aF6728.450213998181
aF5454.1276899090835
aF6417.577726585386
aF9880.283666186742
aF8009.894933281346
aF8098.307139809313
aF6499.699846553255
aF6785.166578919017
aF7330.271214751251
asS'RNApolymeraseIII_eukaryotes'
p613
(lp614
F0.0
aF0.0
aF0.0
aF0.0
aF0.0
aF0.0
aF0.0
aF0.0
aF0.0
aF0.0
aF0.0
aF0.0
aF0.0
aF0.0
aF0.0
aF0.0
aF0.0
aF0.0
aF0.0
asS'sn_Glycerol3_phosphatetransportsystem'
p615
(lp616
F2385.959862555866
aF866.8857306392371
aF1749.837975769801
aF2896.8140683137235
aF1594.4232091939841
aF2348.291229832106
aF1942.1657382848036
aF4979.824093417622
aF1765.5515642768794
aF3553.9791336622493
aF1878.3039174866624
aF2339.3238625273066
aF1303.2611410733866
aF1748.9533883139977
aF2027.951304559268
aF2393.722514782609
aF1807.426600329586
aF1422.218291109719
aF2512.6490938084917
asS'Ethylmalonylpathway'
p617
(lp618
F0.0
aF0.0
aF0.00035188883867117896
aF0.0
aF0.0
aF0.0
aF5.715684751008905e-05
aF0.0
aF0.0
aF0.0
aF8.543189940733592e-05
aF0.0
aF6.462689650409472e-05
aF0.0
aF0.00016235668721481915
aF0.0
aF0.0
aF0.0
aF0.0
asS'Polaraminoacidtransportsystem'
p619
(lp620
F19603.055694810646
aF13927.815791504892
aF14213.136197609845
aF11191.115567735422
aF18989.140298700455
aF17971.58489760215
aF14297.750516972832
aF17449.442628409157
aF18251.92179303502
aF20849.297784713915
aF25489.752016586237
aF25900.855805558884
aF19251.467148103486
aF20044.36145139524
aF20030.003997934466
aF22739.050293618988
aF21641.694331333045
aF22223.788968100635
aF23728.739304900046
asS'UncharacterizedABCtransportsystem'
p621
(lp622
F22526.86060590165
aF19705.05947169631
aF22014.898581416528
aF24810.04541258439
aF26474.38978315625
aF23311.51597713813
aF20800.41706572946
aF17705.44774167727
aF24018.00010028099
aF24547.023427087723
aF22510.633472574085
aF22054.855839251828
aF21206.869786691175
aF22967.736639538707
aF24014.40233703481
aF25566.4720658537
aF19968.64507625761
aF19976.105203657313
aF25204.684146678686
asS'Hemebiosynthesis_glutamate__protoheme_siroheme'
p623
(lp624
F3321.4735054373477
aF1727.2071569904342
aF3504.388709238809
aF3039.707982912973
aF2015.3373648929244
aF2068.5830336932872
aF1991.4109510666867
aF5084.955911322658
aF2918.8212806232855
aF2610.108926493184
aF2820.5719935898305
aF2082.9774722081343
aF3169.6737218451244
aF1847.6505249639872
aF3135.7467825041786
aF2194.9484262242568
aF4008.2962716911634
aF1685.4620778337612
aF3212.2733596272483
asS'Lipooligosaccharidetransportsystem'
p625
(lp626
F350.7184017838317
aF6.501460787617968
aF0.003591904124891888
aF135.54944177519073
aF617.9359620673497
aF124.11019378309942
aF292.5250201954271
aF8.537422478179073
aF297.41374212957015
aF0.10636871380937528
aF1.5659069449822412e-07
aF435.09559930844165
aF468.2462456964806
aF37.835407425375756
aF1.5364016395478123e-07
aF507.5958440412979
aF282.9831706878108
aF620.9556386267471
aF12.897056047242565
asS'C10_C20isoprenoidbiosynthesis_archaea'
p627
(lp628
F2931.2991477671926
aF44.85882659617505
aF238.9761226909158
aF3624.893801360145
aF1929.291967132447
aF1903.4993081824769
aF3581.7886960677515
aF1042.4223819765623
aF1833.7406518539376
aF3408.2943063133484
aF1941.7825102856882
aF2944.9896244789857
aF5525.2455275535
aF4084.9413326630497
aF2067.5776100046514
aF1891.3558305040826
aF1038.569948847668
aF4375.887857302153
aF3333.7098182345126
asS'Glucosinolatebiosynthesis_tryptophan__glucobrassicin'
p629
(lp630
F0.0
aF0.0
aF0.0
aF0.0
aF0.0
aF0.0
aF0.0
aF0.0
aF0.0
aF0.0
aF0.0
aF0.0
aF0.0
aF0.0
aF0.0
aF0.0
aF0.0
aF0.0
aF0.0
asS'Putrescinetransportsystem'
p631
(lp632
F277.2770235476226
aF218.8853367878966
aF501.2544322421215
aF646.1614710611337
aF817.5351454728407
aF652.3842516754731
aF446.4483528472354
aF740.4620020830222
aF409.802001907625
aF1027.549179240911
aF310.6904718261362
aF466.5345758483749
aF730.8342707439224
aF470.35981810137207
aF602.5656093840038
aF734.0966667933985
aF332.77361299722315
aF458.90408000345406
aF1173.81134921216
asS'PTSsystem_sorbose_specificIIcomponent'
p633
(lp634
F15.037059010650138
aF2.0606362195618543e-06
aF222.45920632357146
aF10.025886596579545
aF0.0
aF0.03267236169760904
aF2.6807848600766746e-07
aF368.408149827073
aF0.03583633679448869
aF1.2498222695166095
aF0.0
aF0.0
aF0.0
aF0.0
aF0.0
aF0.37441970738933467
aF0.0
aF0.0
aF0.22140708808461362
asS'Fattyacidbiosynthesis_initiation'
p635
(lp636
F0.02032641560295207
aF4.627272932689901e-06
aF0.004753502880881461
aF15.698097558795824
aF0.03713846131360319
aF0.01351967965249093
aF0.1274395896911985
aF14.137994942470078
aF1.8106106824763353
aF3.5705333259560694
aF12.085413397803675
aF140.20690560954824
aF74.77928793318857
aF1.1063142803347505
aF3.5144261689762186
aF198.247352577859
aF28.761916400519628
aF60.381844744515924
aF34.553096108618874
asS'Multidrug_hemolysintransportsystem'
p637
(lp638
F0.0
aF0.0
aF0.0
aF0.0
aF0.000267045436519627
aF0.0
aF0.0
aF0.0
aF0.0
aF0.12439817954378429
aF0.010084924017564478
aF15.77859528290471
aF0.0
aF0.004613091096855347
aF6.623849378132741
aF0.0
aF312.9983083974433
aF0.9152469018734559
aF0.0
asS'PTSsystem_galactosamine_specificIIcomponent'
p639
(lp640
F875.448653425008
aF2.329251368023854
aF232.20180589517793
aF758.453208914574
aF67.0838378348506
aF16.39378959329298
aF488.89038734610307
aF1039.2218481680738
aF10.802982072628492
aF1.0008955641296238
aF1890.593885829578
aF899.101026000971
aF2688.3254192017853
aF102.11172196145189
aF1103.0399786815904
aF1163.8298020333095
aF0.11432735922055672
aF48.094903761825805
aF9.905760566148944
asS'Manganesetransportsystem'
p641
(lp642
F0.006968983321817041
aF0.22543022206919613
aF0.00029919390545986475
aF0.0
aF0.0
aF1.261057497060113e-05
aF0.0
aF0.00026000541361387975
aF0.0
aF8.924844530437703e-05
aF0.018710357094237504
aF8.880187973823058e-05
aF7.876277392300266e-05
aF7.777088482399989e-05
aF0.0
aF0.0
aF1.638709603945029e-05
aF0.0002120610761531851
aF0.0
asS'PTSsystem_2_O_A_mannosyl_D_glycerate_specificIIcomponent'
p643
(lp644
F2.8568557076375267
aF395.0779013005879
aF385.8486054764172
aF16.380900902999777
aF3.893134892002565
aF1.9336605672401932
aF25.523825272006135
aF317.0484451087134
aF271.90272500189064
aF12.685805442278
aF132.7850030948218
aF41.393293492923775
aF136.91572379002906
aF19.480979041870977
aF12.105193662731015
aF47.74308987908405
aF5.544017310133139
aF41.412219412966294
aF118.55681159953875
asS'Inosinemonophosphatebiosynthesis_PRPP_glutamine__IMP'
p645
(lp646
F15947.986764875328
aF12855.30166483964
aF12710.06748586993
aF16408.47539954104
aF12396.711636502714
aF8469.304680056031
aF14746.849725741857
aF11001.271317294013
aF15404.069398501433
aF15182.546488884374
aF15561.24410806986
aF15852.228068696491
aF12556.002569152173
aF16056.580420834478
aF16075.96141908672
aF15214.928027617148
aF10186.73880546571
aF14466.65336515439
aF1184.912996634514
asS'Proteasome_19Sregulatoryparticle_PA700_'
p647
(lp648
F0.0
aF0.0
aF0.0
aF0.0
aF0.0
aF0.0
aF0.0
aF0.0
aF0.0
aF0.0
aF0.0
aF0.0
aF0.0
aF0.0
aF0.0
aF0.0
aF0.0
aF0.0
aF0.0
asS'PTSsystem_glucitol_sorbitol_specificIIcomponent'
p649
(lp650
F784.268163923641
aF10035.392774496417
aF1144.1648640072556
aF0.0
aF0.0
aF609.3264531449406
aF479.27522296715017
aF1745.3372241118939
aF685.636274581125
aF663.1149002231816
aF966.7142699996085
aF0.0
aF0.0
aF1315.2744923043313
aF1674.0928788907167
aF636.1634306200942
aF0.0
aF294.43053144357356
aF1079.8790288350497
asS'ComplexII_succinatedehydrogenase_fumaratereductase__fumaratereductase'
p651
(lp652
F1.5080393562682092e-06
aF957.7853074513002
aF1422.2997473632863
aF0.0
aF0.0
aF0.0
aF0.0
aF2266.5065986628647
aF0.0
aF0.13767093190893404
aF0.0
aF0.0
aF0.0
aF0.0
aF0.0
aF0.0
aF0.0
aF0.0
aF0.0
asS'Hydroxypropionate_hydroxybutylatecycle'
p653
(lp654
F0.0
aF0.0
aF0.0
aF0.0
aF0.0
aF0.0
aF0.0
aF0.0
aF0.0
aF0.0
aF0.0
aF0.0
aF0.0
aF0.0
aF0.0
aF0.0
aF0.0
aF0.0
aF0.0
asS'Inositolphosphatemetabolism_PI__PIP2__Ins_1_4_5_P3__Ins_1_3_4_5_P4'
p655
(lp656
F72.21873140543173
aF0.0
aF0.0
aF92.32696261905193
aF104.68485927448491
aF38.83652786574586
aF26.353380939261246
aF22.360107876466284
aF14.46452664003922
aF56.60644646483944
aF1.9418630126736386e-05
aF61.30976909709595
aF3.4298525990613956e-06
aF48.43410985552001
aF47.37526786223163
aF0.17724083076127423
aF0.0011659132745899222
aF27.275617869510533
aF14.861262160452481
asS'Celldivisiontransportsystem'
p657
(lp658
F20785.630325813414
aF15599.349142445199
aF15227.055528772515
aF22613.48527315439
aF14706.45538681891
aF20361.360463022105
aF11577.560393995132
aF14511.696799957275
aF15969.717940697808
aF14201.441492596321
aF19117.264424622972
aF15838.190162171122
aF13041.945559917223
aF14808.286226596903
aF17910.170078230774
aF14341.371843976161
aF18857.540403874234
aF18354.78831662943
aF18074.888291470805
asS'DNA_PKcomplex'
p659
(lp660
F20.324459925260907
aF0.0
aF4.598158586058599e-11
aF0.0
aF69.41654171222783
aF0.0674241696890068
aF55.315539963490956
aF11.323098481284633
aF0.1853979667174358
aF3.2482983095588665e-05
aF0.007273366171938514
aF0.00691164679220728
aF0.008239176284805099
aF1.6556845003967113e-08
aF0.004923909587454536
aF0.00016682667257493711
aF0.0
aF0.660546310825761
aF0.0
asS'ComplexI_NADHdehydrogenase__NADHdehydrogenase_ubiquinone_Fe_Sprotein_flavoprotein'
p661
(lp662
F0.0
aF0.0
aF0.0
aF0.0
aF0.0
aF0.0
aF0.0
aF0.0
aF0.0
aF0.0
aF0.0
aF0.0
aF0.0
aF0.0
aF0.0
aF0.0
aF0.0
aF0.0
aF0.0
asS'Phenylalaninebiosynthesis_chorismate__phenylalanine'
p663
(lp664
F3469.304542465543
aF752.7867303955055
aF7131.518958932615
aF1925.2756451258344
aF1435.1836547294736
aF4843.308079238171
aF2283.5603063276208
aF4667.852873195955
aF1201.209571687221
aF4.962475147209214
aF7.182077501686093
aF8065.386470314989
aF3051.4574295537072
aF940.5003506560946
aF1686.1132868512877
aF930.7557895499983
aF5123.096251162774
aF2549.4278682364775
aF3606.719104840515
asS'Formaldehydeassimilation_serinepathway'
p665
(lp666
F0.0
aF0.0
aF0.0
aF0.0
aF0.0
aF0.0
aF0.0
aF0.0
aF0.0
aF0.0
aF0.0
aF0.0
aF0.0
aF0.0
aF0.0
aF0.0
aF0.0
aF0.0
aF0.0
asS'Proteasome_20Scoreparticle'
p667
(lp668
F0.0
aF0.0
aF0.0
aF0.0
aF0.0
aF0.0
aF0.0
aF0.0
aF0.0
aF0.0
aF0.0
aF0.0
aF0.0
aF0.0
aF0.0
aF0.0
aF0.0
aF0.0
aF0.0
asS'Pyrimidinedeoxyribonuleotidebiosynthesis_CDP_CTP__dCDP_dCTP_dTDP_dTTP'
p669
(lp670
F7581.216070078022
aF4452.7122868149845
aF5364.809514019456
aF5528.75254999466
aF3694.6110482083773
aF1792.368597676647
aF9560.834227770447
aF6170.053340542649
aF7132.9997415840835
aF2540.5771461873687
aF4974.098895077645
aF6908.334912183782
aF6826.759314677303
aF9153.37833289844
aF6554.657092293823
aF4448.323096823588
aF8633.027580148699
aF6887.755222014744
aF2210.6352483579326
asS'Ubiquinonebiosynthesis_eukaryotes_chorismate__ubiquinone'
p671
(lp672
F0.0
aF0.0
aF0.0
aF0.0
aF0.0
aF0.0
aF242.83216052677392
aF0.0
aF0.0
aF0.0
aF0.0
aF0.0
aF0.0
aF0.0
aF0.0
aF0.0
aF0.0
aF0.0
aF0.0
asS'Ureatransportsystem'
p673
(lp674
F5.720498099550662
aF0.06084482732241403
aF2.204240893431647
aF0.0037524219226575672
aF0.8134219240008147
aF0.018423173203298296
aF6.856613097432003
aF13.781695249087841
aF0.020644795275202958
aF0.000369778903682314
aF0.0003123040990588923
aF1.1980310074440157e-06
aF0.007731282113182994
aF0.0250107260719486
aF0.000833819725254577
aF14.645591382428758
aF0.23422366344293763
aF0.03464610420712139
aF10.41004544861222
asS'Nickeltransportsystem'
p675
(lp676
F0.0
aF0.0
aF849.7343237009759
aF1218.8848103631537
aF0.0
aF0.0
aF0.0
aF0.0014766858164677902
aF0.0
aF1363.7015649506084
aF2350.7563166230248
aF3201.265926249264
aF0.0
aF0.0
aF0.0
aF1348.0805662135535
aF4262.441280669445
aF1204.0786719057573
aF0.0
asS'PTSsystem_beta_glucosides_specificIIcomponent'
p677
(lp678
F10509.333170112865
aF17890.31730654238
aF6653.147252477737
aF18580.885574101376
aF3466.327419516729
aF10138.42212244419
aF10781.74119132479
aF18603.621781134425
aF14007.924311641567
aF12109.250829796301
aF9416.092318628645
aF7623.018148499049
aF7652.650407664983
aF13943.143484638344
aF13011.060177296282
aF7524.479604570707
aF5211.041767248056
aF7703.857101106825
aF12925.973648202593
asS'ComplexI_NADHdehydrogenase__NADHdehydrogenaseI_diaphorasesubunitofthebidirectionalhydrogenase'
p679
(lp680
F0.0
aF0.0
aF0.0
aF0.0
aF0.0
aF0.0
aF0.0
aF0.0
aF0.0
aF0.0
aF0.0
aF0.0
aF0.0
aF0.0
aF0.0
aF0.0
aF0.0
aF0.0
aF0.0
asS'Threoninebiosynthesis_apartate__homoserine__threonine'
p681
(lp682
F14306.647459786116
aF14162.360608271625
aF8400.243246566142
aF15513.266572320348
aF18168.523046900078
aF14850.86421309933
aF13599.539548591307
aF10241.193446297146
aF17534.649057407605
aF16759.958634498435
aF15395.601252982882
aF17031.200723115122
aF10570.924449418362
aF17504.239583622235
aF17461.856677777083
aF14048.207861227696
aF15232.915375148554
aF14412.898478334184
aF17000.82853713674
asS'Bacterialproteasome'
p683
(lp684
F46.676905835583156
aF0.0
aF0.0
aF0.0
aF0.0
aF0.0
aF0.0
aF0.03725277994308285
aF4.390221244441147e-10
aF834.3099061044807
aF18.47282259621691
aF0.0
aF162.08536693576357
aF0.03560844405084319
aF30.651712833027773
aF834.14745698309
aF0.0
aF884.6728003678566
aF0.0
asS'Lysinebiosynthesis_archaea_2_aminoadipate__lysine'
p685
(lp686
F0.1942618109950798
aF0.0
aF1.6947250886253843e-06
aF0.0
aF0.0
aF0.0
aF0.0
aF0.0
aF0.0
aF0.0
aF0.0
aF0.02142011833523753
aF0.0008072109527865295
aF0.0
aF4.870778231036235
aF0.0
aF0.0
aF0.0
aF0.0
asS'Teichoicacidtransportsystem'
p687
(lp688
F2033.6274507058831
aF18.089878849190406
aF172.22385633028537
aF860.5208036798534
aF2221.4410803613227
aF552.6221995138045
aF1240.233933929987
aF1700.6922461585254
aF1791.709212472496
aF601.3965955418753
aF1644.2788428959805
aF2856.438923794956
aF1901.5713140869193
aF396.4516723945123
aF2533.3969741632122
aF1742.6851978633815
aF1049.260521655182
aF355.2579738207641
aF1898.5460794023663
asS'Spliceosome_U1_snRNP'
p689
(lp690
F0.0
aF0.0
aF0.0
aF0.0
aF0.0
aF0.0
aF0.0
aF0.0
aF0.0
aF0.0
aF0.0
aF0.0
aF0.0
aF0.0
aF0.0
aF0.0
aF0.0
aF0.0
aF0.0
asS'Polyaminebiosynthesis_arginine__agmatine__putrescine__spermidine'
p691
(lp692
F3170.4355315547405
aF1502.3925441605813
aF2697.603393680734
aF3.636624751062931
aF1034.319826999143
aF2968.3812886565547
aF2752.7099133691313
aF4869.265891351356
aF2709.943362408492
aF779.1831530647286
aF2427.6720763619883
aF3029.0257056416654
aF1105.2633179149504
aF495.86519827317943
aF1156.2232447612153
aF2593.3438325520297
aF3552.836402607796
aF2427.040357169718
aF2692.8122806967135
asS'Dermatansulfatedegradation'
p693
(lp694
F0.054850044005978094
aF0.0
aF6.068955891371845
aF0.0
aF0.0
aF42.66250610281677
aF5.439368181922597e-11
aF0.0
aF0.0
aF0.019611366633736218
aF0.312731689629476
aF62.16320881521066
aF2.5731403348344712
aF7.672917049393218e-09
aF0.0
aF2.0757434796363694e-13
aF69.91678085139525
aF2.6617929855975876e-10
aF0.03479652566333212
asS'DNApolymeraseIIcomplex_archaea'
p695
(lp696
F479.3871728289024
aF0.0
aF0.0
aF0.0
aF0.15201663081829578
aF53.276961612474416
aF1.4426527882853649e-05
aF0.25663737851636886
aF80.03776900167517
aF6.099960847545679e-09
aF0.0
aF0.000944716602127393
aF2571.025363580744
aF3.4085979270253324e-05
aF3.980760179783393e-06
aF2.7887514896974763e-07
aF277.6539791973453
aF827.6247748374666
aF1.0049525340894374
asS'BERcomplex'
p697
(lp698
F8.772439251705892e-10
aF0.0
aF3.105969455005825e-09
aF0.0
aF0.0
aF2.8765688235629567e-09
aF0.0
aF0.0
aF3.8156271736898776e-06
aF0.0
aF0.0
aF0.3971463389505117
aF0.0
aF0.0
aF1.014791191321248e-06
aF0.0
aF0.0
aF0.0005701813391058152
aF0.0
asS'Glycosphingolipidbiosynthesis_neolacto_series_LacCer__nLc4Cer'
p699
(lp700
F0.0
aF0.0
aF0.0
aF0.0
aF0.0
aF0.0
aF0.0
aF0.0
aF0.0
aF0.0
aF0.0
aF0.0
aF0.0
aF0.0
aF0.0
aF0.0
aF0.0
aF0.0
aF0.0
asS'Lipopolysaccharidetransportsystem'
p701
(lp702
F7940.006944578148
aF1388.9954439231863
aF5776.069360601197
aF8203.801053273974
aF7885.307299653537
aF14102.759694424496
aF6666.89349255648
aF8114.211135169382
aF15192.256713171915
aF9903.540969418
aF13260.14859594183
aF13231.290810566796
aF8844.207500842622
aF9714.716938226573
aF10203.729013690112
aF19348.41149120179
aF13194.716564480064
aF11386.093605122298
aF18762.859954859206
asS'C4_dicarboxylicacidcycle_phosphoenolpyruvatecarboxykinasetype'
p703
(lp704
F8355.439371170532
aF3714.42463362106
aF3541.7762936575155
aF10179.632564077823
aF2709.114145885905
aF8858.938396337291
aF7099.1183126116985
aF4220.955787802907
aF13391.220863030252
aF12284.510319245412
aF9617.876100964828
aF8007.235564986982
aF2708.2568696537696
aF14810.28736365977
aF9957.872704220004
aF8093.491887905136
aF2709.2262331757065
aF10420.397586850888
aF5955.093910738461
asS'PhotosystemI'
p705
(lp706
F0.0
aF0.0
aF0.0
aF0.0
aF0.0
aF0.0
aF0.0
aF0.0
aF0.0
aF0.0
aF0.0
aF0.0
aF0.0
aF0.0
aF0.0
aF0.0
aF0.0
aF0.0
aF0.0
asS'BRCA1_associatedgenomesurveillancecomplex_BASC_'
p707
(lp708
F0.0
aF0.0
aF1.0760840857508578
aF0.0
aF0.03303028114628652
aF0.0
aF0.0
aF0.0
aF1.137304845555886
aF0.0
aF0.0
aF0.0
aF0.0
aF0.0
aF7.5193875351664
aF6.085414468746629e-06
aF0.0
aF0.0
aF0.8095415564588487
asS'DNApolymerasedeltacomplex'
p709
(lp710
F0.0
aF0.0
aF0.0
aF3.020893542883876e-08
aF0.0
aF2.7757925855203334e-11
aF0.0
aF0.0
aF0.0
aF0.0
aF0.0
aF6.918274854584234e-05
aF0.0
aF0.0
aF0.0
aF0.0
aF0.0
aF0.0
aF0.0
asS'PTSsystem_fructose_specificII_likecomponent'
p711
(lp712
F38.94240698551008
aF224.97906144292895
aF649.2688268103631
aF46.23463795337659
aF151.14565907082397
aF83.71153102577297
aF612.8488162086437
aF1638.7805949701217
aF209.68029674287456
aF83.5595013739249
aF156.5934479844955
aF15.167826800555083
aF9.645715036294272
aF93.24042724321005
aF83.50112739916469
aF274.3630232599653
aF12.839121634434944
aF9.475820649501967
aF31.722116548062253
asS'Inositolphosphatemetabolism_Ins_1_3_4_P3__phytate'
p713
(lp714
F0.0
aF0.0
aF0.0
aF0.0
aF0.0
aF0.0
aF0.0
aF0.0
aF0.0
aF0.0
aF0.0
aF0.0
aF0.0
aF0.0
aF0.0
aF0.0
aF0.0
aF0.0
aF0.0
asS'ADP_L_glycero_D_manno_heptosebiosynthesis'
p715
(lp716
F1410.4524573895822
aF2.021288869925688
aF1799.0630804017217
aF120.95218683698566
aF1440.7712116671942
aF864.0155358037322
aF8075.784938424877
aF3222.164403177458
aF245.68234700364656
aF249.8586896870617
aF1597.0589592217686
aF1126.7217988788102
aF3809.6160789270893
aF6.938486096951536
aF2.2271581494028183
aF56.332686211131886
aF1257.1226051630429
aF4602.982080661452
aF1092.0435727259119
asS'indolepyruvate_ferredoxinoxidoreductase'
p717
(lp718
F2694.1914027231314
aF1510.2608299397589
aF2809.4738804099743
aF3653.9349948759386
aF10630.09360532776
aF8484.912246933069
aF593.3318652419766
aF2807.0851900160787
aF1425.4850289841231
aF3823.5551200030354
aF1510.290857376288
aF2533.341044122272
aF5227.923051048878
aF4664.002731744928
aF3677.6882820691717
aF4568.7732382005925
aF6501.389358412183
aF6673.100226267014
aF7149.313341187642
asS'Phosphatetransportsystem'
p719
(lp720
F17495.83060517129
aF12646.607337468235
aF16958.00531300933
aF18347.87531338522
aF18632.484321985212
aF19224.673794194976
aF15369.084822548488
aF12518.509690747143
aF17482.431435098653
aF17140.39619584972
aF14180.615120027092
aF15126.686701148987
aF16906.64554244093
aF18751.06582856707
aF21184.403579860456
aF18566.10354040127
aF16478.789486914262
aF17982.72412366141
aF18287.656466475633
asS'Glycolysis_coremoduleinvolvingthree_carboncompounds'
p721
(lp722
F17272.659200877322
aF18249.934206912127
aF18950.28725991285
aF18305.43096062983
aF24951.693152371794
aF19671.9132751796
aF18404.985773871547
aF14812.95479250878
aF18097.427004744146
aF18097.223489908538
aF22495.282776513563
aF19914.582096861475
aF20658.65233607156
aF19459.522370540843
aF20641.932169969677
aF18434.176385093677
aF20949.355814204
aF20951.687143760522
aF20563.649880618366
asS'Ceramidebiosynthesis'
p723
(lp724
F0.0
aF1.0847491008902843
aF72.1588892426915
aF0.0
aF0.0
aF0.0
aF0.0
aF0.0
aF0.0
aF0.0
aF0.0
aF5.4513166189311165e-05
aF0.0
aF0.0
aF0.0
aF8.174683732022799e-05
aF147.8068823859487
aF0.0
aF2.461717117932916
asS'Twin_argininetranslocation_Tat_system'
p725
(lp726
F0.0
aF1268.947980798698
aF0.002039890933448007
aF0.0
aF0.0
aF0.0
aF0.00027534906736298524
aF3.364855905269201e-08
aF0.0
aF0.0
aF0.0
aF0.0
aF0.0
aF0.0
aF0.0
aF0.0
aF0.0
aF0.0
aF16.203676731137655
asS'Tetrahydrofolatebiosynthesis_GTP__THF'
p727
(lp728
F8272.146573694847
aF18016.717345979734
aF9442.935958808603
aF12203.81087504658
aF10370.415445131875
aF6266.582161934757
aF10793.147389461905
aF5687.328374588252
aF9986.80207567754
aF9037.945405497136
aF7239.341393872944
aF8344.244094591633
aF6491.299329875249
aF12410.55855104895
aF8937.211152811107
aF8743.2163605252
aF7028.272588067639
aF8072.576301898669
aF5743.736179513936
asS'Lysinebiosynthesis_2_oxoglutarate__2_aminoadipate__lysine'
p729
(lp730
F100.72232158963439
aF2.564887030371474e-06
aF161.3118528307875
aF124.20991032409586
aF0.0
aF0.02340775539824402
aF53.83734077027741
aF7.615592354454175
aF70.07749666108084
aF24.35692809180118
aF0.12122188156090168
aF0.0
aF33.981481420056895
aF0.041763424904838295
aF0.0
aF0.025504796098472192
aF0.8292969146582219
aF16.534955131618123
aF0.006683816944001231
asS'MRXcomplex'
p731
(lp732
F58.750400568626375
aF0.0
aF0.0
aF0.0
aF0.0
aF0.0
aF61.60425139316673
aF0.0
aF0.0
aF60.690587323682315
aF24.43599601871281
aF269.22756114115833
aF0.0
aF60.33663652743827
aF16.883626124779006
aF0.0
aF0.0
aF94.98920597403018
aF0.0
assS'subclass_sl'
p733
(dp734
g10
(I10
I19
tp735
sg12
(I0
I10
tp736
ssS'norm'
p737
F1000000.0
sS'cls'
p738
(dp739
S'class'
p740
(g5
g5
g5
g5
g5
g5
g5
g5
g5
g5
g3
g3
g3
g3
g3
g3
g3
g3
g3
tp741
sS'subclass'
p742
(lp743
S'C_subcl'
p744
aS'C_subcl'
p745
aS'C_subcl'
p746
aS'C_subcl'
p747
aS'C_subcl'
p748
aS'C_subcl'
p749
aS'C_subcl'
p750
aS'C_subcl'
p751
aS'C_subcl'
p752
ag12
aS'H_subcl'
p753
aS'H_subcl'
p754
aS'H_subcl'
p755
aS'H_subcl'
p756
aS'H_subcl'
p757
aS'H_subcl'
p758
aS'H_subcl'
p759
aS'H_subcl'
p760
ag10
ass.